TN:
SF:/mnt/c/D/git/SLIDE/src/utility/slide_algorithms.hpp
FN:17,_ZN5slide13transform_sumISt6vectorISt10unique_ptrINS_11StorageUnitESt14default_deleteIS3_EESaIS6_EEFdRKS6_EEEDaRKT_RT0_
FNDA:4253577,_ZN5slide13transform_sumISt6vectorISt10unique_ptrINS_11StorageUnitESt14default_deleteIS3_EESaIS6_EEFdRKS6_EEEDaRKT_RT0_
DA:17,4253577
DA:20,4253577
end_of_record
SF:/mnt/c/D/git/SLIDE/src/utility/util.hpp
FN:108,_ZN5slide12linspace_fixEddi
FNDA:36,_ZN5slide12linspace_fixEddi
DA:108,36
DA:110,36
DA:111,0
DA:112,36
DA:113,0
DA:115,36
end_of_record
SF:/mnt/c/D/git/SLIDE/src/modules/Module_s.hpp
FN:26,_ZN5slide8Module_sC2ESt17basic_string_viewIcSt11char_traitsIcEEdbbiii
FNDA:1,_ZN5slide8Module_sC2ESt17basic_string_viewIcSt11char_traitsIcEEdbbiii
FN:32,_ZNK5slide8Module_s4VminEv
FNDA:9,_ZNK5slide8Module_s4VminEv
FN:34,_ZNK5slide8Module_s4VmaxEv
FNDA:84553,_ZNK5slide8Module_s4VmaxEv
DA:26,1
DA:27,1
DA:32,9
DA:34,84553
end_of_record
SF:/mnt/c/D/git/SLIDE/src/cells/Cell_ECM/Cell_ECM.hpp
FN:45,_ZN5slide8Cell_ECMILm1EEC2ENSt7__cxx1112basic_stringIcSt11char_traitsIcESaIcEEEdddSt5arrayIdLm1EES9_
FNDA:12,_ZN5slide8Cell_ECMILm1EEC2ENSt7__cxx1112basic_stringIcSt11char_traitsIcESaIcEEEdddSt5arrayIdLm1EES9_
FN:60,_ZNK5slide8Cell_ECMILm2EE1IEv
FNDA:783299,_ZNK5slide8Cell_ECMILm2EE1IEv
FN:60,_ZNK5slide8Cell_ECMILm0EE1IEv
FNDA:172275,_ZNK5slide8Cell_ECMILm0EE1IEv
FN:60,_ZNK5slide8Cell_ECMILm1EE1IEv
FNDA:110692225,_ZNK5slide8Cell_ECMILm1EE1IEv
FN:62,_ZN5slide8Cell_ECMILm0EE3SOCEv
FNDA:34957,_ZN5slide8Cell_ECMILm0EE3SOCEv
FN:62,_ZN5slide8Cell_ECMILm1EE3SOCEv
FNDA:2419796,_ZN5slide8Cell_ECMILm1EE3SOCEv
FN:62,_ZN5slide8Cell_ECMILm2EE3SOCEv
FNDA:87415,_ZN5slide8Cell_ECMILm2EE3SOCEv
FN:63,_ZN5slide8Cell_ECMILm2EE1TEv
FNDA:87415,_ZN5slide8Cell_ECMILm2EE1TEv
FN:63,_ZN5slide8Cell_ECMILm0EE1TEv
FNDA:34957,_ZN5slide8Cell_ECMILm0EE1TEv
FN:63,_ZN5slide8Cell_ECMILm1EE1TEv
FNDA:2419796,_ZN5slide8Cell_ECMILm1EE1TEv
FN:66,_ZN5slide8Cell_ECMILm2EE10viewStatesEv
FNDA:2,_ZN5slide8Cell_ECMILm2EE10viewStatesEv
FN:66,_ZN5slide8Cell_ECMILm1EE10viewStatesEv
FNDA:32,_ZN5slide8Cell_ECMILm1EE10viewStatesEv
FN:66,_ZN5slide8Cell_ECMILm0EE10viewStatesEv
FNDA:2,_ZN5slide8Cell_ECMILm0EE10viewStatesEv
FN:67,_ZN5slide8Cell_ECMILm2EE9getStatesERSt6vectorIdSaIdEE
FNDA:0,_ZN5slide8Cell_ECMILm2EE9getStatesERSt6vectorIdSaIdEE
FN:67,_ZN5slide8Cell_ECMILm1EE9getStatesERSt6vectorIdSaIdEE
FNDA:0,_ZN5slide8Cell_ECMILm1EE9getStatesERSt6vectorIdSaIdEE
FN:67,_ZN5slide8Cell_ECMILm0EE9getStatesERSt6vectorIdSaIdEE
FNDA:0,_ZN5slide8Cell_ECMILm0EE9getStatesERSt6vectorIdSaIdEE
FN:74,_ZN5slide8Cell_ECMILm2EE7getRtotEv
FNDA:0,_ZN5slide8Cell_ECMILm2EE7getRtotEv
FN:74,_ZN5slide8Cell_ECMILm1EE7getRtotEv
FNDA:0,_ZN5slide8Cell_ECMILm1EE7getRtotEv
FN:74,_ZN5slide8Cell_ECMILm0EE7getRtotEv
FNDA:0,_ZN5slide8Cell_ECMILm0EE7getRtotEv
FN:75,_ZN5slide8Cell_ECMILm2EE11getThotSpotEv
FNDA:0,_ZN5slide8Cell_ECMILm2EE11getThotSpotEv
FN:75,_ZN5slide8Cell_ECMILm1EE11getThotSpotEv
FNDA:0,_ZN5slide8Cell_ECMILm1EE11getThotSpotEv
FN:75,_ZN5slide8Cell_ECMILm0EE11getThotSpotEv
FNDA:0,_ZN5slide8Cell_ECMILm0EE11getThotSpotEv
FN:76,_ZN5slide8Cell_ECMILm2EE17getThermalSurfaceEv
FNDA:0,_ZN5slide8Cell_ECMILm2EE17getThermalSurfaceEv
FN:76,_ZN5slide8Cell_ECMILm1EE17getThermalSurfaceEv
FNDA:0,_ZN5slide8Cell_ECMILm1EE17getThermalSurfaceEv
FN:76,_ZN5slide8Cell_ECMILm0EE17getThermalSurfaceEv
FNDA:0,_ZN5slide8Cell_ECMILm0EE17getThermalSurfaceEv
FN:77,_ZN5slide8Cell_ECMILm0EE6getOCVEv
FNDA:545317,_ZN5slide8Cell_ECMILm0EE6getOCVEv
FN:77,_ZN5slide8Cell_ECMILm1EE6getOCVEv
FNDA:106030337,_ZN5slide8Cell_ECMILm1EE6getOCVEv
FN:77,_ZN5slide8Cell_ECMILm2EE6getOCVEv
FNDA:1680086,_ZN5slide8Cell_ECMILm2EE6getOCVEv
FN:83,_ZN5slide8Cell_ECMILm2EE4setTEd
FNDA:0,_ZN5slide8Cell_ECMILm2EE4setTEd
FN:83,_ZN5slide8Cell_ECMILm1EE4setTEd
FNDA:0,_ZN5slide8Cell_ECMILm1EE4setTEd
FN:83,_ZN5slide8Cell_ECMILm0EE4setTEd
FNDA:0,_ZN5slide8Cell_ECMILm0EE4setTEd
FN:88,_ZN5slide8Cell_ECMILm1EE14getThroughputsEv
FNDA:2419796,_ZN5slide8Cell_ECMILm1EE14getThroughputsEv
FN:88,_ZN5slide8Cell_ECMILm2EE14getThroughputsEv
FNDA:87415,_ZN5slide8Cell_ECMILm2EE14getThroughputsEv
FN:88,_ZN5slide8Cell_ECMILm0EE14getThroughputsEv
FNDA:34957,_ZN5slide8Cell_ECMILm0EE14getThroughputsEv
FN:90,_ZN5slide8Cell_ECMILm0EE4copyEv
FNDA:0,_ZN5slide8Cell_ECMILm0EE4copyEv
FN:90,_ZN5slide8Cell_ECMILm1EE4copyEv
FNDA:0,_ZN5slide8Cell_ECMILm1EE4copyEv
FN:90,_ZN5slide8Cell_ECMILm2EE4copyEv
FNDA:0,_ZN5slide8Cell_ECMILm2EE4copyEv
FN:96,_ZN5slide8Cell_ECMILm2EEC2Ev
FNDA:2,_ZN5slide8Cell_ECMILm2EEC2Ev
FN:96,_ZN5slide8Cell_ECMILm1EEC2Ev
FNDA:14,_ZN5slide8Cell_ECMILm1EEC2Ev
FN:96,_ZN5slide8Cell_ECMILm0EEC2Ev
FNDA:2,_ZN5slide8Cell_ECMILm0EEC2Ev
FN:120,_ZN5slide8Cell_ECMILm1EEC2Edd
FNDA:12,_ZN5slide8Cell_ECMILm1EEC2Edd
FN:130,_ZN5slide8Cell_ECMILm1EEC2EdddSt5arrayIdLm1EES3_
FNDA:12,_ZN5slide8Cell_ECMILm1EEC2EdddSt5arrayIdLm1EES3_
FN:166,_ZN5slide8Cell_ECMILm1EE10setCurrentEdbb
FNDA:43914922,_ZN5slide8Cell_ECMILm1EE10setCurrentEdbb
FN:166,_ZN5slide8Cell_ECMILm2EE10setCurrentEdbb
FNDA:45449,_ZN5slide8Cell_ECMILm2EE10setCurrentEdbb
FN:166,_ZN5slide8Cell_ECMILm0EE10setCurrentEdbb
FNDA:53168,_ZN5slide8Cell_ECMILm0EE10setCurrentEdbb
FN:180,_ZN5slide8Cell_ECMILm1EE10setVoltageEdbb
FNDA:291014,_ZN5slide8Cell_ECMILm1EE10setVoltageEdbb
FN:180,_ZN5slide8Cell_ECMILm2EE10setVoltageEdbb
FNDA:304329,_ZN5slide8Cell_ECMILm2EE10setVoltageEdbb
FN:180,_ZN5slide8Cell_ECMILm0EE10setVoltageEdbb
FNDA:17327,_ZN5slide8Cell_ECMILm0EE10setVoltageEdbb
FN:204,_ZN5slide8Cell_ECMILm1EE6setSOCEdbb
FNDA:0,_ZN5slide8Cell_ECMILm1EE6setSOCEdbb
FN:204,_ZN5slide8Cell_ECMILm0EE6setSOCEdbb
FNDA:0,_ZN5slide8Cell_ECMILm0EE6setSOCEdbb
FN:204,_ZN5slide8Cell_ECMILm2EE6setSOCEdbb
FNDA:0,_ZN5slide8Cell_ECMILm2EE6setSOCEdbb
FN:243,_ZN5slide8Cell_ECMILm2EE1VEv
FNDA:1375757,_ZN5slide8Cell_ECMILm2EE1VEv
FN:243,_ZN5slide8Cell_ECMILm1EE1VEv
FNDA:105739323,_ZN5slide8Cell_ECMILm1EE1VEv
FN:243,_ZN5slide8Cell_ECMILm0EE1VEv
FNDA:527990,_ZN5slide8Cell_ECMILm0EE1VEv
FN:275,_ZN5slide8Cell_ECMILm2EE9setStatesERSt4spanIKdLm18446744073709551615EEbb
FNDA:0,_ZN5slide8Cell_ECMILm2EE9setStatesERSt4spanIKdLm18446744073709551615EEbb
FN:275,_ZN5slide8Cell_ECMILm0EE9setStatesERSt4spanIKdLm18446744073709551615EEbb
FNDA:0,_ZN5slide8Cell_ECMILm0EE9setStatesERSt4spanIKdLm18446744073709551615EEbb
FN:275,_ZN5slide8Cell_ECMILm1EE9setStatesERSt4spanIKdLm18446744073709551615EEbb
FNDA:0,_ZN5slide8Cell_ECMILm1EE9setStatesERSt4spanIKdLm18446744073709551615EEbb
FN:293,_ZN5slide8Cell_ECMILm0EE11validStatesEb
FNDA:0,_ZN5slide8Cell_ECMILm0EE11validStatesEb
FN:293,_ZN5slide8Cell_ECMILm2EE11validStatesEb
FNDA:0,_ZN5slide8Cell_ECMILm2EE11validStatesEb
FN:293,_ZN5slide8Cell_ECMILm1EE11validStatesEb
FNDA:0,_ZN5slide8Cell_ECMILm1EE11validStatesEb
FN:320,_ZN5slide8Cell_ECMILm0EE11timeStep_CCEdi
FNDA:70477,_ZN5slide8Cell_ECMILm0EE11timeStep_CCEdi
FN:320,_ZN5slide8Cell_ECMILm1EE11timeStep_CCEdi
FNDA:4267221,_ZN5slide8Cell_ECMILm1EE11timeStep_CCEdi
FN:320,_ZN5slide8Cell_ECMILm2EE11timeStep_CCEdi
FNDA:349760,_ZN5slide8Cell_ECMILm2EE11timeStep_CCEdi
DA:45,12
DA:46,12
DA:48,12
DA:49,12
DA:60,172275
DA:60,110692225
DA:60,783299
DA:62,34957
DA:62,2419796
DA:62,87415
DA:63,34957
DA:63,2419796
DA:63,87415
DA:66,2
DA:66,32
DA:66,2
DA:67,0
DA:67,0
DA:67,0
DA:74,0
DA:74,0
DA:74,0
DA:75,0
DA:75,0
DA:75,0
DA:76,0
DA:76,0
DA:76,0
DA:77,1680086
DA:77,106030337
DA:77,545317
DA:83,0
DA:83,0
DA:83,0
DA:88,34957
DA:88,2419796
DA:88,87415
DA:90,0
DA:90,0
DA:90,0
DA:96,2
DA:98,2
DA:99,2
DA:101,2
DA:102,2
DA:105,2
DA:106,2
DA:107,2
DA:111,2
DA:112,2
DA:115,2
DA:116,2
DA:117,2
DA:96,14
DA:98,14
DA:99,14
DA:101,14
DA:102,14
DA:105,14
DA:106,14
DA:107,14
DA:115,14
DA:116,14
DA:117,14
DA:96,2
DA:98,2
DA:99,2
DA:101,2
DA:102,2
DA:115,2
DA:116,2
DA:117,2
DA:120,12
DA:123,12
DA:125,12
DA:126,12
DA:127,12
DA:130,12
DA:133,12
DA:135,12
DA:136,12
DA:137,12
DA:138,12
DA:166,53168
DA:168,53168
DA:169,53168
DA:171,53168
DA:173,53168
DA:174,0
DA:176,53168
DA:166,43914922
DA:168,43914922
DA:169,43914922
DA:171,43914922
DA:173,43914922
DA:174,0
DA:176,43914922
DA:166,45449
DA:168,45449
DA:169,45449
DA:171,45449
DA:173,45449
DA:174,0
DA:176,45449
DA:180,17327
DA:182,17327
DA:185,17327
DA:186,17327
DA:188,17327
DA:191,17327
DA:193,17327
DA:195,17327
DA:197,17327
DA:198,0
DA:200,17327
DA:180,291014
DA:182,291014
DA:185,291014
DA:186,291014
DA:188,582028
DA:189,291014
DA:191,291014
DA:193,291014
DA:195,291014
DA:197,291014
DA:198,0
DA:200,291014
DA:180,304329
DA:182,304329
DA:185,304329
DA:186,304329
DA:188,912987
DA:189,608658
DA:191,304329
DA:193,304329
DA:195,304329
DA:197,304329
DA:198,0
DA:200,304329
DA:204,0
DA:222,0
DA:223,0
DA:225,0
DA:227,0
DA:229,0
DA:231,0
DA:233,0
DA:234,0
DA:236,0
DA:239,0
DA:204,0
DA:222,0
DA:223,0
DA:225,0
DA:227,0
DA:229,0
DA:231,0
DA:233,0
DA:234,0
DA:236,0
DA:239,0
DA:204,0
DA:222,0
DA:223,0
DA:225,0
DA:227,0
DA:229,0
DA:231,0
DA:233,0
DA:234,0
DA:236,0
DA:239,0
DA:243,1375757
DA:258,1375757
DA:260,1375757
DA:261,1375757
DA:263,4127271
DA:264,2751514
DA:266,1375757
DA:267,0
DA:269,0
DA:270,0
DA:243,105739323
DA:258,105739323
DA:260,105739323
DA:261,105739323
DA:263,211478646
DA:264,105739323
DA:266,105739323
DA:267,0
DA:269,0
DA:270,0
DA:243,527990
DA:258,527990
DA:260,527990
DA:261,527990
DA:263,527990
DA:266,527990
DA:267,0
DA:269,0
DA:270,0
DA:275,0
DA:279,0
DA:281,0
DA:282,0
DA:284,0
DA:286,0
DA:287,0
DA:289,0
DA:275,0
DA:279,0
DA:281,0
DA:282,0
DA:284,0
DA:286,0
DA:287,0
DA:289,0
DA:275,0
DA:279,0
DA:281,0
DA:282,0
DA:284,0
DA:286,0
DA:287,0
DA:289,0
DA:293,0
DA:301,0
DA:305,0
DA:307,0
DA:308,0
DA:309,0
DA:310,0
DA:311,0
DA:312,0
DA:316,0
DA:293,0
DA:301,0
DA:305,0
DA:307,0
DA:308,0
DA:309,0
DA:310,0
DA:311,0
DA:312,0
DA:316,0
DA:293,0
DA:301,0
DA:305,0
DA:307,0
DA:308,0
DA:309,0
DA:310,0
DA:311,0
DA:312,0
DA:316,0
DA:320,70477
DA:325,70477
DA:328,0
DA:329,0
DA:332,70477
DA:334,263230
DA:336,192753
DA:337,192753
DA:339,192753
DA:344,192753
DA:345,192753
DA:346,192753
DA:349,70477
DA:320,4267221
DA:325,4267221
DA:328,0
DA:329,0
DA:332,4267221
DA:334,10177639
DA:336,5910418
DA:337,5910418
DA:339,11820836
DA:340,5910418
DA:344,5910418
DA:345,5910418
DA:346,5910418
DA:349,4267221
DA:320,349760
DA:325,349760
DA:328,0
DA:329,0
DA:332,349760
DA:334,804810
DA:336,455050
DA:337,455050
DA:339,1365150
DA:340,910100
DA:344,455050
DA:345,455050
DA:346,455050
DA:349,349760
end_of_record
SF:/mnt/c/D/git/SLIDE/src/types/Histogram.hpp
FN:37,_ZN5slide9HistogramILNS_13HistogramTypeE1EdEC2Ev
FNDA:10,_ZN5slide9HistogramILNS_13HistogramTypeE1EdEC2Ev
DA:37,10
end_of_record
SF:/mnt/c/D/git/SLIDE/src/cells/Cell.hpp
FN:38,_ZN5slide4CellC2Ev
FNDA:18,_ZN5slide4CellC2Ev
FN:41,_ZN5slide4CellD2Ev
FNDA:18,_ZN5slide4CellD2Ev
FN:41,_ZN5slide4CellD0Ev
FNDA:0,_ZN5slide4CellD0Ev
FN:43,_ZNK5slide4Cell3CapEv
FNDA:6986411,_ZNK5slide4Cell3CapEv
FN:44,_ZN5slide4Cell11setCapacityEd
FNDA:12,_ZN5slide4Cell11setCapacityEd
FN:46,_ZNK5slide4Cell4VminEv
FNDA:44260477,_ZNK5slide4Cell4VminEv
FN:47,_ZNK5slide4Cell4VMINEv
FNDA:5756723,_ZNK5slide4Cell4VMINEv
FN:48,_ZNK5slide4Cell4VMAXEv
FNDA:5756723,_ZNK5slide4Cell4VMAXEv
FN:49,_ZNK5slide4Cell4VmaxEv
FNDA:45860713,_ZNK5slide4Cell4VmaxEv
FN:50,_ZN5slide4Cell4TmaxEv
FNDA:0,_ZN5slide4Cell4TmaxEv
FN:51,_ZN5slide4Cell4TminEv
FNDA:0,_ZN5slide4Cell4TminEv
FN:53,_ZN5slide4Cell8getVhighEv
FNDA:0,_ZN5slide4Cell8getVhighEv
FN:54,_ZN5slide4Cell7getVlowEv
FNDA:1784410,_ZN5slide4Cell7getVlowEv
FN:56,_ZN5slide4Cell11getThotSpotEv
FNDA:0,_ZN5slide4Cell11getThotSpotEv
FN:58,_ZN5slide4Cell12checkCurrentEbb
FNDA:44626209,_ZN5slide4Cell12checkCurrentEbb
FN:66,_ZN5slide4Cell12checkVoltageERdb
FNDA:44260396,_ZN5slide4Cell12checkVoltageERdb
FN:82,_ZN5slide4Cell9getNcellsEv
FNDA:12,_ZN5slide4Cell9getNcellsEv
FN:91,_ZN5slide4Cell12thermalModelEiPdS1_S1_d
FNDA:0,_ZN5slide4Cell12thermalModelEiPdS1_S1_d
FN:103,_ZN5slide4Cell9storeDataEv
FNDA:2542168,_ZN5slide4Cell9storeDataEv
FN:104,_ZN5slide4Cell9writeDataERKNSt7__cxx1112basic_stringIcSt11char_traitsIcESaIcEEE
FNDA:36,_ZN5slide4Cell9writeDataERKNSt7__cxx1112basic_stringIcSt11char_traitsIcESaIcEEE
FN:106,_ZN5slide4Cell14getThroughputsEv
FNDA:0,_ZN5slide4Cell14getThroughputsEv
FN:108,_ZNK5slide4Cell13getVariationsEv
FNDA:0,_ZNK5slide4Cell13getVariationsEv
DA:38,18
DA:41,0
DA:41,18
DA:43,6986411
DA:44,12
DA:46,44260477
DA:47,5756723
DA:48,5756723
DA:49,45860713
DA:50,0
DA:51,0
DA:53,0
DA:54,1784410
DA:56,0
DA:58,44626209
DA:61,44626209
DA:63,44626209
DA:66,44260396
DA:79,44260396
DA:82,12
DA:91,0
DA:99,0
DA:103,2542168
DA:104,36
DA:106,0
DA:108,0
end_of_record
SF:/mnt/c/D/git/SLIDE/src/utility/interpolation.hpp
FN:26,_ZN5slide15linInt_noexceptINS_9FixedDataIdLb1EEES2_EEDabRT_RT0_idb
FNDA:108255740,_ZN5slide15linInt_noexceptINS_9FixedDataIdLb1EEES2_EEDabRT_RT0_idb
FN:91,_ZN5slide6linIntINS_9FixedDataIdLb1EEES2_EEdbbRT_RT0_idb
FNDA:108255740,_ZN5slide6linIntINS_9FixedDataIdLb1EEES2_EEdbbRT_RT0_idb
DA:26,108255740
DA:46,108255740
DA:47,108255740
DA:50,108255740
DA:51,108255740
DA:52,0
DA:53,0
DA:54,108255740
DA:55,0
DA:56,0
DA:60,108255740
DA:61,0
DA:62,108255740
DA:63,0
DA:66,108255740
DA:69,108255740
DA:70,108255740
DA:71,108255740
DA:76,0
DA:77,0
DA:80,108255740
DA:81,108255740
DA:82,108255740
DA:83,108255740
DA:84,108255740
DA:87,108255740
DA:91,108255740
DA:116,108255740
DA:118,108255740
DA:119,0
DA:120,0
DA:121,0
DA:124,108255740
end_of_record
SF:/mnt/c/D/git/SLIDE/src/procedures/Cycler.hpp
FN:33,_ZN5slide6CyclerC2EPNS_11StorageUnitERKNSt7__cxx1112basic_stringIcSt11char_traitsIcESaIcEEE
FNDA:10,_ZN5slide6CyclerC2EPNS_11StorageUnitERKNSt7__cxx1112basic_stringIcSt11char_traitsIcESaIcEEE
DA:33,10
end_of_record
SF:/mnt/c/D/git/SLIDE/src/types/data_storage/CellDataStorage.hpp
FN:59,_ZN5slide15CellDataStorageILNS_8settings20cellDataStorageLevelE3EE10initialiseINS_8Cell_ECMILm2EEEEEvRT_
FNDA:2,_ZN5slide15CellDataStorageILNS_8settings20cellDataStorageLevelE3EE10initialiseINS_8Cell_ECMILm2EEEEEvRT_
FN:59,_ZN5slide15CellDataStorageILNS_8settings20cellDataStorageLevelE3EE10initialiseINS_8Cell_ECMILm1EEEEEvRT_
FNDA:14,_ZN5slide15CellDataStorageILNS_8settings20cellDataStorageLevelE3EE10initialiseINS_8Cell_ECMILm1EEEEEvRT_
FN:59,_ZN5slide15CellDataStorageILNS_8settings20cellDataStorageLevelE3EE10initialiseINS_8Cell_ECMILm0EEEEEvRT_
FNDA:2,_ZN5slide15CellDataStorageILNS_8settings20cellDataStorageLevelE3EE10initialiseINS_8Cell_ECMILm0EEEEEvRT_
FN:62,_ZN5slide15CellDataStorageILNS_8settings20cellDataStorageLevelE3EE9storeDataINS_4CellEEEvRT_
FNDA:2542168,_ZN5slide15CellDataStorageILNS_8settings20cellDataStorageLevelE3EE9storeDataINS_4CellEEEvRT_
DA:59,2
DA:59,14
DA:59,2
DA:62,2542168
DA:64,2542168
DA:66,2542168
DA:67,2542168
DA:68,2542168
DA:69,2542168
DA:70,2542168
DA:71,2542168
DA:72,2542168
DA:73,2542168
end_of_record
SF:/mnt/c/D/git/SLIDE/src/StorageUnit.hpp
FN:33,_ZN5slide11StorageUnit15calculateNcellsEv
FNDA:0,_ZN5slide11StorageUnit15calculateNcellsEv
FN:38,_ZN5slide11StorageUnitC2ESt17basic_string_viewIcSt11char_traitsIcEE
FNDA:22,_ZN5slide11StorageUnitC2ESt17basic_string_viewIcSt11char_traitsIcEE
FN:42,_ZN5slide11StorageUnitD0Ev
FNDA:0,_ZN5slide11StorageUnitD0Ev
FN:42,_ZN5slide11StorageUnitD2Ev
FNDA:22,_ZN5slide11StorageUnitD2Ev
FN:43,_ZN5slide11StorageUnit5getIDB5cxx11Ev
FNDA:66,_ZN5slide11StorageUnit5getIDB5cxx11Ev
FN:47,_ZN5slide11StorageUnit9getFullIDB5cxx11Ev
FNDA:66,_ZN5slide11StorageUnit9getFullIDB5cxx11Ev
FN:57,_ZN5slide11StorageUnit10isChargingEv
FNDA:0,_ZN5slide11StorageUnit10isChargingEv
FN:58,_ZN5slide11StorageUnit13isDischargingEv
FNDA:0,_ZN5slide11StorageUnit13isDischargingEv
FN:61,_ZN5slide11StorageUnit10viewStatesEv
FNDA:0,_ZN5slide11StorageUnit10viewStatesEv
FN:62,_ZN5slide11StorageUnit19setBlockDegAndThermEb
FNDA:18,_ZN5slide11StorageUnit19setBlockDegAndThermEb
FN:63,_ZN5slide11StorageUnit9setParentEPS0_
FNDA:12,_ZN5slide11StorageUnit9setParentEPS0_
FN:65,_ZN5slide11StorageUnit10setVoltageEdbb
FNDA:294518,_ZN5slide11StorageUnit10setVoltageEdbb
FN:73,_ZN5slide11StorageUnit12backupStatesEv
FNDA:0,_ZN5slide11StorageUnit12backupStatesEv
FN:74,_ZN5slide11StorageUnit13restoreStatesEv
FNDA:0,_ZN5slide11StorageUnit13restoreStatesEv
DA:33,0
DA:38,22
DA:42,0
DA:42,22
DA:43,66
DA:47,132
DA:57,0
DA:58,0
DA:61,0
DA:62,18
DA:63,12
DA:65,294518
DA:67,294518
DA:73,0
DA:74,0
end_of_record
SF:/mnt/c/D/git/SLIDE/src/cells/Cell_ECM/State_ECM.hpp
FN:27,_ZNK5slide9State_ECMILm0EE1IEv
FNDA:172275,_ZNK5slide9State_ECMILm0EE1IEv
FN:27,_ZNK5slide9State_ECMILm1EE1IEv
FNDA:110692225,_ZNK5slide9State_ECMILm1EE1IEv
FN:27,_ZNK5slide9State_ECMILm2EE1IEv
FNDA:783299,_ZNK5slide9State_ECMILm2EE1IEv
FN:30,_ZN5slide9State_ECMILm2EE1IEv
FNDA:3395014,_ZN5slide9State_ECMILm2EE1IEv
FN:30,_ZN5slide9State_ECMILm1EE1IEv
FNDA:162057109,_ZN5slide9State_ECMILm1EE1IEv
FN:30,_ZN5slide9State_ECMILm0EE1IEv
FNDA:808565,_ZN5slide9State_ECMILm0EE1IEv
FN:31,_ZN5slide9State_ECMILm2EE2IrEm
FNDA:5180372,_ZN5slide9State_ECMILm2EE2IrEm
FN:31,_ZN5slide9State_ECMILm1EE2IrEm
FNDA:117851173,_ZN5slide9State_ECMILm1EE2IrEm
FN:32,_ZN5slide9State_ECMILm2EE3SOCEv
FNDA:2222551,_ZN5slide9State_ECMILm2EE3SOCEv
FN:32,_ZN5slide9State_ECMILm1EE3SOCEv
FNDA:114360563,_ZN5slide9State_ECMILm1EE3SOCEv
FN:32,_ZN5slide9State_ECMILm0EE3SOCEv
FNDA:773027,_ZN5slide9State_ECMILm0EE3SOCEv
FN:33,_ZN5slide9State_ECMILm0EE1TEv
FNDA:34957,_ZN5slide9State_ECMILm0EE1TEv
FN:33,_ZN5slide9State_ECMILm1EE1TEv
FNDA:2419796,_ZN5slide9State_ECMILm1EE1TEv
FN:33,_ZN5slide9State_ECMILm2EE1TEv
FNDA:87415,_ZN5slide9State_ECMILm2EE1TEv
DA:27,172275
DA:27,110692225
DA:27,783299
DA:30,3395014
DA:30,162057109
DA:30,808565
DA:31,5180372
DA:31,117851173
DA:32,2222551
DA:32,114360563
DA:32,773027
DA:33,34957
DA:33,2419796
DA:33,87415
end_of_record
SF:/mnt/c/D/git/SLIDE/src/types/XYdata.hpp
FN:26,_ZN5slide14check_is_fixedINS_9FixedDataIdLb1EEEEEbRT_
FNDA:18,_ZN5slide14check_is_fixedINS_9FixedDataIdLb1EEEEEbRT_
FN:53,_ZN5slide6XYdataINS_9FixedDataIdLb1EEES2_EC2Ev
FNDA:18,_ZN5slide6XYdataINS_9FixedDataIdLb1EEES2_EC2Ev
FN:64,_ZN5slide6XYdataINS_9FixedDataIdLb1EEES2_E6interpEdbb
FNDA:108255740,_ZN5slide6XYdataINS_9FixedDataIdLb1EEES2_E6interpEdbb
FN:71,_ZN5slide6XYdataINS_9FixedDataIdLb1EEES2_E14check_is_fixedEv
FNDA:18,_ZN5slide6XYdataINS_9FixedDataIdLb1EEES2_E14check_is_fixedEv
DA:26,18
DA:28,18
DA:29,18
DA:31,18
DA:33,36
DA:34,18
DA:35,18
DA:36,0
DA:37,0
DA:41,18
DA:53,18
DA:64,108255740
DA:66,108255740
DA:71,18
DA:73,18
DA:74,18
end_of_record
SF:/mnt/c/D/git/SLIDE/src/main.cpp
FN:25,main
FNDA:1,main
DA:25,1
DA:35,1
DA:38,1
DA:50,1
DA:131,1
DA:132,1
DA:149,1
DA:150,1
DA:152,1
DA:153,1
DA:155,1
DA:156,1
DA:158,1
DA:160,1
DA:162,1
DA:164,1
DA:168,1
DA:169,1
end_of_record
SF:/mnt/c/D/git/SLIDE/src/types/data_storage/CellData.hpp
FN:20,_ZN5slide8CellDataILNS_8settings20cellDataStorageLevelE3EE9writeDataINS_4CellEEEDaRT_RKNSt7__cxx1112basic_stringIcSt11char_traitsIcESaIcEEE
FNDA:36,_ZN5slide8CellDataILNS_8settings20cellDataStorageLevelE3EE9writeDataINS_4CellEEEDaRT_RKNSt7__cxx1112basic_stringIcSt11char_traitsIcESaIcEEE
DA:20,36
DA:22,36
DA:23,36
end_of_record
SF:/mnt/c/D/git/SLIDE/src/modules/Module_p.hpp
FN:25,_ZN5slide8Module_pC2ESt17basic_string_viewIcSt11char_traitsIcEEdbbiii
FNDA:3,_ZN5slide8Module_pC2ESt17basic_string_viewIcSt11char_traitsIcEEdbbiii
DA:25,3
DA:26,3
end_of_record
SF:/mnt/c/D/git/SLIDE/benchmark/benchmark_Cell_ECM.hpp
FN:18,_ZN5slide10benchmarks33run_Cell_ECM_single_default_pulseEv
FNDA:1,_ZN5slide10benchmarks33run_Cell_ECM_single_default_pulseEv
FN:39,_ZN5slide10benchmarks32run_Cell_ECM_single_default_CCCVEv
FNDA:1,_ZN5slide10benchmarks32run_Cell_ECM_single_default_CCCVEv
FN:63,_ZN5slide10benchmarks38run_Cell_ECM_2_RC_single_default_pulseEv
FNDA:1,_ZN5slide10benchmarks38run_Cell_ECM_2_RC_single_default_pulseEv
FN:84,_ZN5slide10benchmarks37run_Cell_ECM_2_RC_single_default_CCCVEv
FNDA:1,_ZN5slide10benchmarks37run_Cell_ECM_2_RC_single_default_CCCVEv
FN:108,_ZN5slide10benchmarks37run_Cell_ECM_parallel_3_default_pulseEv
FNDA:1,_ZN5slide10benchmarks37run_Cell_ECM_parallel_3_default_pulseEv
FN:144,_ZN5slide10benchmarks36run_Cell_ECM_parallel_3_default_CCCVEv
FNDA:1,_ZN5slide10benchmarks36run_Cell_ECM_parallel_3_default_CCCVEv
FN:180,_ZN5slide10benchmarks41run_Cell_ECM_parallel_3_withRcontact_CCCVEv
FNDA:1,_ZN5slide10benchmarks41run_Cell_ECM_parallel_3_withRcontact_CCCVEv
FN:220,_ZN5slide10benchmarks39run_Cell_ECM_series_3_withRcontact_CCCVEv
FNDA:1,_ZN5slide10benchmarks39run_Cell_ECM_series_3_withRcontact_CCCVEv
DA:18,1
DA:21,1
DA:22,1
DA:23,1
DA:25,1
DA:26,1
DA:28,1
DA:29,1
DA:30,4
DA:31,3
DA:32,3
DA:35,1
DA:36,1
DA:37,1
DA:39,1
DA:42,1
DA:43,1
DA:44,1
DA:46,1
DA:47,1
DA:49,1
DA:50,1
DA:51,4
DA:52,3
DA:53,3
DA:54,3
DA:55,3
DA:58,1
DA:59,1
DA:60,1
DA:63,1
DA:66,1
DA:67,1
DA:68,1
DA:70,1
DA:71,1
DA:73,1
DA:74,1
DA:75,4
DA:76,3
DA:77,3
DA:80,1
DA:81,1
DA:82,1
DA:84,1
DA:87,1
DA:88,1
DA:89,1
DA:91,1
DA:92,1
DA:94,1
DA:95,1
DA:96,4
DA:97,3
DA:98,3
DA:99,3
DA:100,3
DA:103,1
DA:104,1
DA:105,1
DA:108,1
DA:111,1
DA:113,1
DA:114,1
DA:115,1
DA:116,1
DA:119,1
DA:120,1
DA:121,1
DA:122,8
DA:124,1
DA:125,1
DA:127,1
DA:129,1
DA:130,1
DA:133,1
DA:134,1
DA:135,4
DA:136,3
DA:137,3
DA:140,1
DA:141,1
DA:142,6
DA:144,1
DA:147,1
DA:148,1
DA:149,1
DA:150,1
DA:151,1
DA:154,1
DA:155,1
DA:156,1
DA:157,8
DA:159,1
DA:160,1
DA:162,1
DA:164,1
DA:165,1
DA:167,1
DA:168,1
DA:169,4
DA:170,3
DA:171,3
DA:172,3
DA:173,3
DA:176,1
DA:177,1
DA:178,6
DA:180,1
DA:183,1
DA:184,1
DA:185,1
DA:186,1
DA:187,1
DA:189,1
DA:192,1
DA:193,1
DA:194,1
DA:195,8
DA:197,1
DA:198,1
DA:199,1
DA:201,1
DA:203,1
DA:204,1
DA:206,1
DA:207,1
DA:208,4
DA:209,3
DA:210,3
DA:211,3
DA:212,3
DA:215,1
DA:216,1
DA:217,6
DA:220,1
DA:223,1
DA:224,1
DA:225,1
DA:226,1
DA:227,1
DA:229,1
DA:233,1
DA:234,1
DA:235,1
DA:236,8
DA:238,1
DA:239,1
DA:240,1
DA:242,1
DA:244,1
DA:245,1
DA:248,1
DA:249,1
DA:250,4
DA:251,3
DA:252,3
DA:253,3
DA:254,3
DA:257,1
DA:258,1
DA:259,6
end_of_record
SF:/mnt/c/D/git/SLIDE/benchmark/running_Cell_Bucket.hpp
FN:18,_ZN5slide10benchmarks36run_Cell_Bucket_single_default_pulseEv
FNDA:1,_ZN5slide10benchmarks36run_Cell_Bucket_single_default_pulseEv
FN:39,_ZN5slide10benchmarks35run_Cell_Bucket_single_default_CCCVEv
FNDA:1,_ZN5slide10benchmarks35run_Cell_Bucket_single_default_CCCVEv
DA:18,1
DA:21,1
DA:22,1
DA:23,1
DA:25,1
DA:26,1
DA:28,1
DA:29,1
DA:30,4
DA:31,3
DA:32,3
DA:35,1
DA:36,1
DA:37,1
DA:39,1
DA:42,1
DA:43,1
DA:44,1
DA:46,1
DA:47,1
DA:49,1
DA:50,1
DA:51,4
DA:52,3
DA:53,3
DA:54,3
DA:55,3
DA:58,1
DA:59,1
DA:60,1
end_of_record
SF:/mnt/c/D/git/SLIDE/src/types/State.hpp
FN:33,_ZNK5slide5StateILm0ELm3EE4timeEv
FNDA:2542168,_ZNK5slide5StateILm0ELm3EE4timeEv
FN:34,_ZNK5slide5StateILm0ELm3EE2AhEv
FNDA:2542168,_ZNK5slide5StateILm0ELm3EE2AhEv
FN:35,_ZNK5slide5StateILm0ELm3EE2WhEv
FNDA:2542168,_ZNK5slide5StateILm0ELm3EE2WhEv
FN:37,_ZN5slide5StateILm3ELm3EE4timeEv
FNDA:227710,_ZN5slide5StateILm3ELm3EE4timeEv
FN:37,_ZN5slide5StateILm4ELm3EE4timeEv
FNDA:8330214,_ZN5slide5StateILm4ELm3EE4timeEv
FN:37,_ZN5slide5StateILm5ELm3EE4timeEv
FNDA:542465,_ZN5slide5StateILm5ELm3EE4timeEv
FN:38,_ZN5slide5StateILm3ELm3EE2AhEv
FNDA:227710,_ZN5slide5StateILm3ELm3EE2AhEv
FN:38,_ZN5slide5StateILm4ELm3EE2AhEv
FNDA:8330214,_ZN5slide5StateILm4ELm3EE2AhEv
FN:38,_ZN5slide5StateILm5ELm3EE2AhEv
FNDA:542465,_ZN5slide5StateILm5ELm3EE2AhEv
FN:39,_ZN5slide5StateILm3ELm3EE2WhEv
FNDA:227710,_ZN5slide5StateILm3ELm3EE2WhEv
FN:39,_ZN5slide5StateILm4ELm3EE2WhEv
FNDA:8330214,_ZN5slide5StateILm4ELm3EE2WhEv
FN:39,_ZN5slide5StateILm5ELm3EE2WhEv
FNDA:542465,_ZN5slide5StateILm5ELm3EE2WhEv
DA:33,2542168
DA:34,2542168
DA:35,2542168
DA:37,227710
DA:37,8330214
DA:37,542465
DA:38,227710
DA:38,8330214
DA:38,542465
DA:39,227710
DA:39,8330214
DA:39,542465
end_of_record
SF:/mnt/c/D/git/SLIDE/src/modules/Module.hpp
FN:81,_ZN5slide6Module7getNSUsEv
FNDA:6437495,_ZN5slide6Module7getNSUsEv
FN:118,_ZN5slide6Module11setRcontactESt4spanIdLm18446744073709551615EE
FNDA:2,_ZN5slide6Module11setRcontactESt4spanIdLm18446744073709551615EE
FN:173,_ZN5slide6Module19setBlockDegAndThermEb
FNDA:4,_ZN5slide6Module19setBlockDegAndThermEb
DA:81,6437495
DA:118,2
DA:124,2
DA:125,2
DA:126,2
DA:127,2
DA:128,2
DA:173,4
DA:175,16
DA:176,12
DA:178,4
DA:179,4
end_of_record
SF:/mnt/c/D/git/SLIDE/src/types/Status.hpp
FN:49,_ZN5slide10isStatusOKENS_6StatusE
FNDA:45009127,_ZN5slide10isStatusOKENS_6StatusE
FN:50,_ZN5slide11isStatusBadENS_6StatusE
FNDA:45009127,_ZN5slide11isStatusBadENS_6StatusE
DA:49,45009127
DA:50,45009127
end_of_record
SF:/mnt/c/D/git/SLIDE/src/utility/timing.hpp
FN:23,_ZN5slide5ClockC2Ev
FNDA:11,_ZN5slide5ClockC2Ev
FN:24,_ZNK5slide5Clock3nowEv
FNDA:11,_ZNK5slide5Clock3nowEv
FN:25,_ZNK5slide5Clock5startEv
FNDA:11,_ZNK5slide5Clock5startEv
FN:26,_ZNK5slide5Clock8durationEv
FNDA:11,_ZNK5slide5Clock8durationEv
FN:33,_ZN5slidelsERSoRKNS_5ClockE
FNDA:11,_ZN5slidelsERSoRKNS_5ClockE
DA:23,11
DA:24,11
DA:25,11
DA:26,11
DA:28,11
DA:29,22
DA:33,11
DA:35,11
DA:36,11
DA:37,11
DA:38,11
DA:40,11
end_of_record
SF:/mnt/c/D/git/SLIDE/src/utility/units.hpp
FN:31,_ZN5slide12K_to_CelsiusIdEEdT_
FNDA:0,_ZN5slide12K_to_CelsiusIdEEdT_
DA:31,0
end_of_record
SF:/mnt/c/D/git/SLIDE/src/types/FixedData.hpp
FN:31,_ZN5slide13FixedDataIterIdLb1EEC2EPNS_9FixedDataIdLb1EEEi
FNDA:0,_ZN5slide13FixedDataIterIdLb1EEC2EPNS_9FixedDataIdLb1EEEi
FN:33,_ZN5slide13FixedDataIterIdLb1EEppEv
FNDA:0,_ZN5slide13FixedDataIterIdLb1EEppEv
FN:64,_ZNK5slide13FixedDataIterIdLb1EEdeEv
FNDA:0,_ZNK5slide13FixedDataIterIdLb1EEdeEv
FN:67,_ZN5slideneERKNS_13FixedDataIterIdLb1EEES3_
FNDA:0,_ZN5slideneERKNS_13FixedDataIterIdLb1EEES3_
FN:69,_ZN5slideplERKNS_13FixedDataIterIdLb1EEEi
FNDA:0,_ZN5slideplERKNS_13FixedDataIterIdLb1EEEi
FN:74,_ZN5slidemiERKNS_13FixedDataIterIdLb1EEES3_
FNDA:0,_ZN5slidemiERKNS_13FixedDataIterIdLb1EEES3_
FN:97,_ZNK5slide9FixedDataIdLb1EE1FMUlddiE_clEddi
FNDA:1190813212,_ZNK5slide9FixedDataIdLb1EE1FMUlddiE_clEddi
FN:100,_ZN5slide9FixedDataIdLb1EEC2Ev
FNDA:36,_ZN5slide9FixedDataIdLb1EEC2Ev
FN:101,_ZN5slide9FixedDataIdLb1EEC2Eddi
FNDA:36,_ZN5slide9FixedDataIdLb1EEC2Eddi
FN:104,_ZNK5slide9FixedDataIdLb1EEixEi
FNDA:1190813212,_ZNK5slide9FixedDataIdLb1EEixEi
FN:124,_ZN5slide9FixedDataIdLb1EE5beginEv
FNDA:0,_ZN5slide9FixedDataIdLb1EE5beginEv
FN:157,_ZNK5slide9FixedDataIdLb1EE4sizeEv
FNDA:108255776,_ZNK5slide9FixedDataIdLb1EE4sizeEv
DA:31,0
DA:33,0
DA:35,0
DA:36,0
DA:64,0
DA:67,0
DA:69,0
DA:71,0
DA:74,0
DA:76,0
DA:97,1190813212
DA:100,36
DA:101,36
DA:104,1190813212
DA:115,1190813212
DA:116,1190813212
DA:124,0
DA:157,108255776
end_of_record
SF:/mnt/c/D/git/SLIDE/src/settings/slide_paths.hpp
end_of_record
SF:/mnt/c/D/git/SLIDE/src/types/data_storage/CellDataWriter.hpp
FN:32,_ZN5slide17writeVarAndStatesINS_4CellEEEvRSt14basic_ofstreamIcSt11char_traitsIcEERT_
FNDA:36,_ZN5slide17writeVarAndStatesINS_4CellEEEvRSt14basic_ofstreamIcSt11char_traitsIcEERT_
FN:41,_ZN5slide13writeDataImplILNS_8settings20cellDataStorageLevelE3ENS_4CellENS_8CellDataILS2_3EEEEEvRSt14basic_ofstreamIcSt11char_traitsIcEERT0_RT1_
FNDA:36,_ZN5slide13writeDataImplILNS_8settings20cellDataStorageLevelE3ENS_4CellENS_8CellDataILS2_3EEEEEvRSt14basic_ofstreamIcSt11char_traitsIcEERT0_RT1_
FN:65,_ZN5slide14CellDataWriterILNS_8settings20cellDataStorageLevelE3EE9writeDataINS_4CellENS_8CellDataILS2_3EEEEEvRT_RKNSt7__cxx1112basic_stringIcSt11char_traitsIcESaIcEEERT0_
FNDA:36,_ZN5slide14CellDataWriterILNS_8settings20cellDataStorageLevelE3EE9writeDataINS_4CellENS_8CellDataILS2_3EEEEEvRT_RKNSt7__cxx1112basic_stringIcSt11char_traitsIcESaIcEEERT0_
DA:32,36
DA:34,36
DA:35,288
DA:36,252
DA:37,36
DA:38,36
DA:41,36
DA:44,36
DA:47,36
DA:49,36
DA:65,36
DA:67,36
DA:68,72
DA:69,36
DA:70,36
DA:71,36
end_of_record
SF:/mnt/c/D/git/SLIDE/src/utility/free_functions.hpp
FN:25,_ZN5slide4free20setVoltage_iterativeINS_11StorageUnitEEENS_6StatusEPT_d
FNDA:294518,_ZN5slide4free20setVoltage_iterativeINS_11StorageUnitEEENS_6StatusEPT_d
FN:49,_ZN5slide4free10write_dataERSt14basic_ofstreamIcSt11char_traitsIcEERSt6vectorIdSaIdEEm
FNDA:36,_ZN5slide4free10write_dataERSt14basic_ofstreamIcSt11char_traitsIcEERSt6vectorIdSaIdEEm
FN:82,_ZN5slide4free8get_VminISt10unique_ptrINS_11StorageUnitESt14default_deleteIS3_EEEEDaRKT_
FNDA:63,_ZN5slide4free8get_VminISt10unique_ptrINS_11StorageUnitESt14default_deleteIS3_EEEEDaRKT_
FN:88,_ZN5slide4free8get_VmaxISt10unique_ptrINS_11StorageUnitESt14default_deleteIS3_EEEEDaRKT_
FNDA:1600299,_ZN5slide4free8get_VmaxISt10unique_ptrINS_11StorageUnitESt14default_deleteIS3_EEEEDaRKT_
FN:104,_ZN5slide4free9check_SOCILb1EEEDaddd
FNDA:12,_ZN5slide4free9check_SOCILb1EEEDaddd
FN:118,_ZN5slide4free17check_Cell_statesILb1ENS_8Cell_ECMILm0EEEEEDaRT0_b
FNDA:0,_ZN5slide4free17check_Cell_statesILb1ENS_8Cell_ECMILm0EEEEEDaRT0_b
FN:118,_ZN5slide4free17check_Cell_statesILb1ENS_8Cell_ECMILm1EEEEEDaRT0_b
FNDA:0,_ZN5slide4free17check_Cell_statesILb1ENS_8Cell_ECMILm1EEEEEDaRT0_b
FN:118,_ZN5slide4free17check_Cell_statesILb1ENS_8Cell_ECMILm2EEEEEDaRT0_b
FNDA:0,_ZN5slide4free17check_Cell_statesILb1ENS_8Cell_ECMILm2EEEEEDaRT0_b
FN:138,_ZN5slide4free13check_voltageILb1ENS_4CellEEEDaRdRT0_
FNDA:44260396,_ZN5slide4free13check_voltageILb1ENS_4CellEEEDaRdRT0_
FN:245,_ZN5slide4free8openFileINS_4CellENSt10filesystem7__cxx114pathEEESt14basic_ofstreamIcSt11char_traitsIcEERT_RKT0_RKNSt7__cxx1112basic_stringIcS8_SaIcEEESK_
FNDA:36,_ZN5slide4free8openFileINS_4CellENSt10filesystem7__cxx114pathEEESt14basic_ofstreamIcSt11char_traitsIcEERT_RKT0_RKNSt7__cxx1112basic_stringIcS8_SaIcEEESK_
DA:25,294518
DA:29,294518
DA:30,294518
DA:32,437248
DA:33,437248
DA:34,437248
DA:35,294518
DA:37,142730
DA:38,142730
DA:39,142730
DA:41,142730
DA:42,142730
DA:43,142730
DA:46,0
DA:49,36
DA:51,17795212
DA:52,17795176
DA:53,2542168
DA:54,2542132
DA:56,15253008
DA:58,17795176
DA:61,36
DA:62,36
DA:82,63
DA:88,1600299
DA:104,12
DA:106,12
DA:109,0
DA:110,0
DA:111,0
DA:112,0
DA:114,12
DA:118,0
DA:120,0
DA:123,0
DA:125,0
DA:129,0
DA:131,0
DA:134,0
DA:118,0
DA:120,0
DA:123,0
DA:125,0
DA:129,0
DA:131,0
DA:134,0
DA:118,0
DA:120,0
DA:123,0
DA:125,0
DA:129,0
DA:131,0
DA:134,0
DA:138,44260396
DA:151,44260396
DA:152,44260396
DA:155,44260396
DA:156,0
DA:157,0
DA:158,0
DA:161,44260396
DA:163,0
DA:164,0
DA:166,0
DA:170,44260396
DA:171,44260396
DA:172,0
DA:179,0
DA:180,0
DA:188,0
DA:189,0
DA:192,0
DA:193,0
DA:194,0
DA:195,0
DA:197,0
DA:198,0
DA:201,0
DA:202,0
DA:203,0
DA:204,0
DA:206,0
DA:209,0
DA:245,36
DA:247,72
DA:250,36
DA:252,36
DA:254,0
DA:255,0
DA:258,72
DA:259,36
end_of_record
TN:
SF:/mnt/c/D/git/SLIDE/tests/tests_util.hpp
FN:20,_ZN5slide5tests4TESTIRFbvERA17_KcEEbOT_OT0_
FNDA:2,_ZN5slide5tests4TESTIRFbvERA17_KcEEbOT_OT0_
FN:20,_ZN5slide5tests4TESTIRFbvERA23_KcEEbOT_OT0_
FNDA:1,_ZN5slide5tests4TESTIRFbvERA23_KcEEbOT_OT0_
FN:20,_ZN5slide5tests4TESTIRFbvERA22_KcEEbOT_OT0_
FNDA:3,_ZN5slide5tests4TESTIRFbvERA22_KcEEbOT_OT0_
FN:20,_ZN5slide5tests4TESTIRFbvERA24_KcEEbOT_OT0_
FNDA:2,_ZN5slide5tests4TESTIRFbvERA24_KcEEbOT_OT0_
FN:34,_ZN5slide5tests4NEARIdiEEbT_T0_d
FNDA:9,_ZN5slide5tests4NEARIdiEEbT_T0_d
FN:34,_ZN5slide5tests4NEARIddEEbT_T0_d
FNDA:20,_ZN5slide5tests4NEARIddEEbT_T0_d
FN:46,_ZN5slide5tests2EQEdd
FNDA:0,_ZN5slide5tests2EQEdd
DA:20,2
DA:27,2
DA:28,0
DA:29,0
DA:20,1
DA:27,1
DA:28,0
DA:29,0
DA:20,3
DA:27,3
DA:28,0
DA:29,0
DA:20,2
DA:27,2
DA:28,0
DA:29,0
DA:34,9
DA:36,9
DA:37,9
DA:38,9
DA:40,0
DA:41,0
DA:42,0
DA:34,20
DA:36,20
DA:37,20
DA:38,20
DA:40,0
DA:41,0
DA:42,0
DA:46,0
DA:48,0
end_of_record
SF:/mnt/c/D/git/SLIDE/src/cells/Cell_ECM/Cell_ECM.hpp
FN:52,_ZN5slide8Cell_ECMILm0EEC2ENSt7__cxx1112basic_stringIcSt11char_traitsIcESaIcEEEdd
FNDA:1,_ZN5slide8Cell_ECMILm0EEC2ENSt7__cxx1112basic_stringIcSt11char_traitsIcESaIcEEEdd
FN:60,_ZNK5slide8Cell_ECMILm0EE1IEv
FNDA:116,_ZNK5slide8Cell_ECMILm0EE1IEv
FN:62,_ZN5slide8Cell_ECMILm0EE3SOCEv
FNDA:110,_ZN5slide8Cell_ECMILm0EE3SOCEv
FN:63,_ZN5slide8Cell_ECMILm0EE1TEv
FNDA:104,_ZN5slide8Cell_ECMILm0EE1TEv
FN:66,_ZN5slide8Cell_ECMILm0EE10viewStatesEv
FNDA:0,_ZN5slide8Cell_ECMILm0EE10viewStatesEv
FN:67,_ZN5slide8Cell_ECMILm0EE9getStatesERSt6vectorIdSaIdEE
FNDA:2,_ZN5slide8Cell_ECMILm0EE9getStatesERSt6vectorIdSaIdEE
FN:74,_ZN5slide8Cell_ECMILm0EE7getRtotEv
FNDA:0,_ZN5slide8Cell_ECMILm0EE7getRtotEv
FN:75,_ZN5slide8Cell_ECMILm0EE11getThotSpotEv
FNDA:0,_ZN5slide8Cell_ECMILm0EE11getThotSpotEv
FN:76,_ZN5slide8Cell_ECMILm0EE17getThermalSurfaceEv
FNDA:0,_ZN5slide8Cell_ECMILm0EE17getThermalSurfaceEv
FN:77,_ZN5slide8Cell_ECMILm0EE6getOCVEv
FNDA:210,_ZN5slide8Cell_ECMILm0EE6getOCVEv
FN:83,_ZN5slide8Cell_ECMILm0EE4setTEd
FNDA:0,_ZN5slide8Cell_ECMILm0EE4setTEd
FN:88,_ZN5slide8Cell_ECMILm0EE14getThroughputsEv
FNDA:100,_ZN5slide8Cell_ECMILm0EE14getThroughputsEv
FN:90,_ZN5slide8Cell_ECMILm0EE4copyEv
FNDA:2,_ZN5slide8Cell_ECMILm0EE4copyEv
FN:96,_ZN5slide8Cell_ECMILm0EEC2Ev
FNDA:9,_ZN5slide8Cell_ECMILm0EEC2Ev
FN:120,_ZN5slide8Cell_ECMILm0EEC2Edd
FNDA:1,_ZN5slide8Cell_ECMILm0EEC2Edd
FN:166,_ZN5slide8Cell_ECMILm0EE10setCurrentEdbb
FNDA:6,_ZN5slide8Cell_ECMILm0EE10setCurrentEdbb
FN:180,_ZN5slide8Cell_ECMILm0EE10setVoltageEdbb
FNDA:0,_ZN5slide8Cell_ECMILm0EE10setVoltageEdbb
FN:204,_ZN5slide8Cell_ECMILm0EE6setSOCEdbb
FNDA:2,_ZN5slide8Cell_ECMILm0EE6setSOCEdbb
FN:243,_ZN5slide8Cell_ECMILm0EE1VEv
FNDA:210,_ZN5slide8Cell_ECMILm0EE1VEv
FN:275,_ZN5slide8Cell_ECMILm0EE9setStatesERSt4spanIKdLm18446744073709551615EEbb
FNDA:1,_ZN5slide8Cell_ECMILm0EE9setStatesERSt4spanIKdLm18446744073709551615EEbb
FN:293,_ZN5slide8Cell_ECMILm0EE11validStatesEb
FNDA:1,_ZN5slide8Cell_ECMILm0EE11validStatesEb
FN:320,_ZN5slide8Cell_ECMILm0EE11timeStep_CCEdi
FNDA:102,_ZN5slide8Cell_ECMILm0EE11timeStep_CCEdi
DA:52,1
DA:53,1
DA:55,1
DA:56,1
DA:60,116
DA:62,110
DA:63,104
DA:66,0
DA:67,2
DA:74,0
DA:75,0
DA:76,0
DA:77,210
DA:83,0
DA:88,100
DA:90,2
DA:96,9
DA:98,9
DA:99,9
DA:101,9
DA:102,9
DA:115,9
DA:116,9
DA:117,9
DA:120,1
DA:123,1
DA:125,1
DA:126,1
DA:127,1
DA:166,6
DA:168,6
DA:169,6
DA:171,6
DA:173,6
DA:174,0
DA:176,6
DA:180,0
DA:182,0
DA:185,0
DA:186,0
DA:188,0
DA:191,0
DA:193,0
DA:195,0
DA:197,0
DA:198,0
DA:200,0
DA:204,2
DA:222,2
DA:223,0
DA:225,2
DA:227,2
DA:229,2
DA:231,0
DA:233,0
DA:234,0
DA:236,0
DA:239,2
DA:243,210
DA:258,210
DA:260,210
DA:261,210
DA:263,210
DA:266,210
DA:267,0
DA:269,0
DA:270,0
DA:275,1
DA:279,1
DA:281,1
DA:282,1
DA:284,1
DA:286,1
DA:287,0
DA:289,1
DA:293,1
DA:301,1
DA:305,1
DA:307,1
DA:308,0
DA:309,0
DA:310,0
DA:311,0
DA:312,0
DA:316,1
DA:320,102
DA:325,102
DA:328,0
DA:329,0
DA:332,102
DA:334,204
DA:336,102
DA:337,102
DA:339,102
DA:344,102
DA:345,102
DA:346,102
DA:349,102
end_of_record
SF:/mnt/c/D/git/SLIDE/src/utility/util.hpp
FN:108,_ZN5slide12linspace_fixEddi
FNDA:18,_ZN5slide12linspace_fixEddi
DA:108,18
DA:110,18
DA:111,0
DA:112,18
DA:113,0
DA:115,18
end_of_record
SF:/mnt/c/D/git/SLIDE/tests/unit/Cell_Bucket_test.cpp
FN:20,_ZN5slide5tests4unit16Cell_Bucket_testEv
FNDA:1,_ZN5slide5tests4unit16Cell_Bucket_testEv
FN:46,_ZN5slide5tests4unit14getStates_testEv
FNDA:1,_ZN5slide5tests4unit14getStates_testEv
FN:58,_ZN5slide5tests4unit9getV_testEv
FNDA:0,_ZN5slide5tests4unit9getV_testEv
FN:86,_ZN5slide5tests4unit14getParent_testEv
FNDA:1,_ZN5slide5tests4unit14getParent_testEv
FN:93,_ZN5slide5tests4unit15setCurrent_testEv
FNDA:1,_ZN5slide5tests4unit15setCurrent_testEv
FN:113,_ZN5slide5tests4unit9setT_testEv
FNDA:0,_ZN5slide5tests4unit9setT_testEv
FN:121,_ZN5slide5tests4unit11setSOC_testEv
FNDA:0,_ZN5slide5tests4unit11setSOC_testEv
FN:140,_ZN5slide5tests4unit14setStates_testEv
FNDA:1,_ZN5slide5tests4unit14setStates_testEv
FN:181,_ZN5slide5tests4unit16timeStep_CC_testEv
FNDA:1,_ZN5slide5tests4unit16timeStep_CC_testEv
FN:202,_ZN5slide5tests4unit9data_testEv
FNDA:1,_ZN5slide5tests4unit9data_testEv
FN:224,_ZN5slide5tests4unit9Copy_testEv
FNDA:1,_ZN5slide5tests4unit9Copy_testEv
FN:250,_ZN5slide5tests4unit20test_all_Cell_BucketEv
FNDA:1,_ZN5slide5tests4unit20test_all_Cell_BucketEv
FN:267,main
FNDA:1,main
DA:20,1
DA:23,1
DA:24,1
DA:25,1
DA:26,1
DA:27,1
DA:28,1
DA:29,1
DA:31,1
DA:32,1
DA:33,1
DA:35,1
DA:36,1
DA:37,1
DA:38,1
DA:39,1
DA:40,1
DA:41,1
DA:43,1
DA:44,1
DA:46,1
DA:48,1
DA:49,1
DA:51,1
DA:52,1
DA:53,1
DA:54,1
DA:55,1
DA:56,1
DA:58,0
DA:60,0
DA:61,0
DA:64,0
DA:65,0
DA:66,0
DA:67,0
DA:69,0
DA:70,0
DA:71,0
DA:74,0
DA:75,0
DA:76,0
DA:78,0
DA:79,0
DA:80,0
DA:81,0
DA:83,0
DA:84,0
DA:86,1
DA:88,1
DA:89,1
DA:90,1
DA:91,1
DA:93,1
DA:95,1
DA:98,1
DA:99,1
DA:100,1
DA:101,1
DA:104,1
DA:105,1
DA:106,1
DA:107,1
DA:108,1
DA:109,1
DA:110,1
DA:111,1
DA:113,0
DA:115,0
DA:116,0
DA:117,0
DA:118,0
DA:119,0
DA:120,0
DA:121,0
DA:123,0
DA:126,0
DA:127,0
DA:128,0
DA:129,0
DA:132,0
DA:133,0
DA:134,0
DA:135,0
DA:136,0
DA:137,0
DA:138,0
DA:139,0
DA:140,1
DA:142,1
DA:144,1
DA:146,1
DA:148,1
DA:149,1
DA:150,1
DA:152,1
DA:153,1
DA:155,1
DA:157,1
DA:159,1
DA:160,1
DA:161,1
DA:179,1
DA:180,1
DA:181,1
DA:183,1
DA:184,1
DA:185,1
DA:186,1
DA:190,1
DA:191,1
DA:192,1
DA:193,1
DA:195,1
DA:196,1
DA:197,1
DA:198,1
DA:199,1
DA:200,1
DA:202,1
DA:204,1
DA:206,1
DA:207,1
DA:209,1
DA:210,1
DA:213,101
DA:214,100
DA:215,100
DA:219,1
DA:221,1
DA:222,1
DA:224,1
DA:226,1
DA:228,1
DA:230,1
DA:231,1
DA:232,1
DA:235,1
DA:236,1
DA:237,1
DA:239,1
DA:240,1
DA:241,1
DA:244,1
DA:245,1
DA:246,1
DA:247,1
DA:250,1
DA:252,1
DA:253,1
DA:255,1
DA:256,1
DA:257,1
DA:258,1
DA:259,1
DA:260,1
DA:262,1
DA:267,1
end_of_record
SF:/mnt/c/D/git/SLIDE/src/utility/free_functions.hpp
FN:25,_ZN5slide4free20setVoltage_iterativeINS_11StorageUnitEEENS_6StatusEPT_d
FNDA:0,_ZN5slide4free20setVoltage_iterativeINS_11StorageUnitEEENS_6StatusEPT_d
FN:49,_ZN5slide4free10write_dataERSt14basic_ofstreamIcSt11char_traitsIcEERSt6vectorIdSaIdEEm
FNDA:0,_ZN5slide4free10write_dataERSt14basic_ofstreamIcSt11char_traitsIcEERSt6vectorIdSaIdEEm
FN:104,_ZN5slide4free9check_SOCILb1EEEDaddd
FNDA:4,_ZN5slide4free9check_SOCILb1EEEDaddd
FN:118,_ZN5slide4free17check_Cell_statesILb1ENS_8Cell_ECMILm0EEEEEDaRT0_b
FNDA:1,_ZN5slide4free17check_Cell_statesILb1ENS_8Cell_ECMILm0EEEEEDaRT0_b
FN:138,_ZN5slide4free13check_voltageILb1ENS_4CellEEEDaRdRT0_
FNDA:6,_ZN5slide4free13check_voltageILb1ENS_4CellEEEDaRdRT0_
FN:245,_ZN5slide4free8openFileINS_4CellENSt10filesystem7__cxx114pathEEESt14basic_ofstreamIcSt11char_traitsIcEERT_RKT0_RKNSt7__cxx1112basic_stringIcS8_SaIcEEESK_
FNDA:0,_ZN5slide4free8openFileINS_4CellENSt10filesystem7__cxx114pathEEESt14basic_ofstreamIcSt11char_traitsIcEERT_RKT0_RKNSt7__cxx1112basic_stringIcS8_SaIcEEESK_
DA:25,0
DA:29,0
DA:30,0
DA:32,0
DA:33,0
DA:34,0
DA:35,0
DA:37,0
DA:38,0
DA:39,0
DA:41,0
DA:42,0
DA:43,0
DA:46,0
DA:49,0
DA:51,0
DA:52,0
DA:53,0
DA:54,0
DA:56,0
DA:58,0
DA:61,0
DA:62,0
DA:104,4
DA:106,4
DA:109,0
DA:110,0
DA:111,0
DA:112,0
DA:114,4
DA:118,1
DA:120,1
DA:123,0
DA:125,0
DA:129,1
DA:131,1
DA:134,0
DA:138,6
DA:151,6
DA:152,6
DA:155,6
DA:156,0
DA:157,0
DA:158,0
DA:161,6
DA:163,0
DA:164,0
DA:166,0
DA:170,6
DA:171,6
DA:172,0
DA:179,0
DA:180,0
DA:188,0
DA:189,0
DA:192,0
DA:193,0
DA:194,0
DA:195,0
DA:197,0
DA:198,0
DA:201,0
DA:202,0
DA:203,0
DA:204,0
DA:206,0
DA:209,0
DA:245,0
DA:247,0
DA:250,0
DA:252,0
DA:254,0
DA:255,0
DA:258,0
DA:259,0
end_of_record
SF:/mnt/c/D/git/SLIDE/src/types/Status.hpp
FN:47,_ZN5slide18isStatusSuccessfulENS_6StatusE
FNDA:1,_ZN5slide18isStatusSuccessfulENS_6StatusE
FN:49,_ZN5slide10isStatusOKENS_6StatusE
FNDA:7,_ZN5slide10isStatusOKENS_6StatusE
FN:50,_ZN5slide11isStatusBadENS_6StatusE
FNDA:7,_ZN5slide11isStatusBadENS_6StatusE
DA:47,1
DA:49,7
DA:50,7
end_of_record
SF:/mnt/c/D/git/SLIDE/src/utility/units.hpp
FN:30,_ZN5slide11C_to_KelvinIeEEdT_
FNDA:0,_ZN5slide11C_to_KelvinIeEEdT_
FN:31,_ZN5slide12K_to_CelsiusIdEEdT_
FNDA:0,_ZN5slide12K_to_CelsiusIdEEdT_
FN:33,_ZN5slideli5_degCEe
FNDA:0,_ZN5slideli5_degCEe
DA:30,0
DA:31,0
DA:33,0
end_of_record
SF:/mnt/c/D/git/SLIDE/src/types/FixedData.hpp
FN:31,_ZN5slide13FixedDataIterIdLb1EEC2EPNS_9FixedDataIdLb1EEEi
FNDA:0,_ZN5slide13FixedDataIterIdLb1EEC2EPNS_9FixedDataIdLb1EEEi
FN:33,_ZN5slide13FixedDataIterIdLb1EEppEv
FNDA:0,_ZN5slide13FixedDataIterIdLb1EEppEv
FN:64,_ZNK5slide13FixedDataIterIdLb1EEdeEv
FNDA:0,_ZNK5slide13FixedDataIterIdLb1EEdeEv
FN:67,_ZN5slideneERKNS_13FixedDataIterIdLb1EEES3_
FNDA:0,_ZN5slideneERKNS_13FixedDataIterIdLb1EEES3_
FN:69,_ZN5slideplERKNS_13FixedDataIterIdLb1EEEi
FNDA:0,_ZN5slideplERKNS_13FixedDataIterIdLb1EEEi
FN:74,_ZN5slidemiERKNS_13FixedDataIterIdLb1EEES3_
FNDA:0,_ZN5slidemiERKNS_13FixedDataIterIdLb1EEES3_
FN:97,_ZNK5slide9FixedDataIdLb1EE1FMUlddiE_clEddi
FNDA:2346,_ZNK5slide9FixedDataIdLb1EE1FMUlddiE_clEddi
FN:100,_ZN5slide9FixedDataIdLb1EEC2Ev
FNDA:18,_ZN5slide9FixedDataIdLb1EEC2Ev
FN:101,_ZN5slide9FixedDataIdLb1EEC2Eddi
FNDA:18,_ZN5slide9FixedDataIdLb1EEC2Eddi
FN:104,_ZNK5slide9FixedDataIdLb1EEixEi
FNDA:2346,_ZNK5slide9FixedDataIdLb1EEixEi
FN:124,_ZN5slide9FixedDataIdLb1EE5beginEv
FNDA:0,_ZN5slide9FixedDataIdLb1EE5beginEv
FN:157,_ZNK5slide9FixedDataIdLb1EE4sizeEv
FNDA:228,_ZNK5slide9FixedDataIdLb1EE4sizeEv
DA:31,0
DA:33,0
DA:35,0
DA:36,0
DA:64,0
DA:67,0
DA:69,0
DA:71,0
DA:74,0
DA:76,0
DA:97,2346
DA:100,18
DA:101,18
DA:104,2346
DA:115,2346
DA:116,2346
DA:124,0
DA:157,228
end_of_record
SF:/mnt/c/D/git/SLIDE/src/settings/slide_paths.hpp
end_of_record
SF:/mnt/c/D/git/SLIDE/src/types/data_storage/CellDataWriter.hpp
FN:32,_ZN5slide17writeVarAndStatesINS_4CellEEEvRSt14basic_ofstreamIcSt11char_traitsIcEERT_
FNDA:0,_ZN5slide17writeVarAndStatesINS_4CellEEEvRSt14basic_ofstreamIcSt11char_traitsIcEERT_
FN:41,_ZN5slide13writeDataImplILNS_8settings20cellDataStorageLevelE3ENS_4CellENS_8CellDataILS2_3EEEEEvRSt14basic_ofstreamIcSt11char_traitsIcEERT0_RT1_
FNDA:0,_ZN5slide13writeDataImplILNS_8settings20cellDataStorageLevelE3ENS_4CellENS_8CellDataILS2_3EEEEEvRSt14basic_ofstreamIcSt11char_traitsIcEERT0_RT1_
FN:65,_ZN5slide14CellDataWriterILNS_8settings20cellDataStorageLevelE3EE9writeDataINS_4CellENS_8CellDataILS2_3EEEEEvRT_RKNSt7__cxx1112basic_stringIcSt11char_traitsIcESaIcEEERT0_
FNDA:0,_ZN5slide14CellDataWriterILNS_8settings20cellDataStorageLevelE3EE9writeDataINS_4CellENS_8CellDataILS2_3EEEEEvRT_RKNSt7__cxx1112basic_stringIcSt11char_traitsIcESaIcEEERT0_
DA:32,0
DA:34,0
DA:35,0
DA:36,0
DA:37,0
DA:38,0
DA:41,0
DA:44,0
DA:47,0
DA:49,0
DA:65,0
DA:67,0
DA:68,0
DA:69,0
DA:70,0
DA:71,0
end_of_record
SF:/mnt/c/D/git/SLIDE/src/types/State.hpp
FN:33,_ZNK5slide5StateILm0ELm3EE4timeEv
FNDA:100,_ZNK5slide5StateILm0ELm3EE4timeEv
FN:34,_ZNK5slide5StateILm0ELm3EE2AhEv
FNDA:100,_ZNK5slide5StateILm0ELm3EE2AhEv
FN:35,_ZNK5slide5StateILm0ELm3EE2WhEv
FNDA:100,_ZNK5slide5StateILm0ELm3EE2WhEv
FN:37,_ZN5slide5StateILm3ELm3EE4timeEv
FNDA:202,_ZN5slide5StateILm3ELm3EE4timeEv
FN:38,_ZN5slide5StateILm3ELm3EE2AhEv
FNDA:202,_ZN5slide5StateILm3ELm3EE2AhEv
FN:39,_ZN5slide5StateILm3ELm3EE2WhEv
FNDA:202,_ZN5slide5StateILm3ELm3EE2WhEv
DA:33,100
DA:34,100
DA:35,100
DA:37,202
DA:38,202
DA:39,202
end_of_record
SF:/mnt/c/D/git/SLIDE/src/types/data_storage/CellData.hpp
FN:20,_ZN5slide8CellDataILNS_8settings20cellDataStorageLevelE3EE9writeDataINS_4CellEEEDaRT_RKNSt7__cxx1112basic_stringIcSt11char_traitsIcESaIcEEE
FNDA:0,_ZN5slide8CellDataILNS_8settings20cellDataStorageLevelE3EE9writeDataINS_4CellEEEDaRT_RKNSt7__cxx1112basic_stringIcSt11char_traitsIcESaIcEEE
DA:20,0
DA:22,0
DA:23,0
end_of_record
SF:/mnt/c/D/git/SLIDE/src/cells/Cell_ECM/State_ECM.hpp
FN:27,_ZNK5slide9State_ECMILm0EE1IEv
FNDA:116,_ZNK5slide9State_ECMILm0EE1IEv
FN:30,_ZN5slide9State_ECMILm0EE1IEv
FNDA:318,_ZN5slide9State_ECMILm0EE1IEv
FN:32,_ZN5slide9State_ECMILm0EE3SOCEv
FNDA:427,_ZN5slide9State_ECMILm0EE3SOCEv
FN:33,_ZN5slide9State_ECMILm0EE1TEv
FNDA:104,_ZN5slide9State_ECMILm0EE1TEv
DA:27,116
DA:30,318
DA:32,427
DA:33,104
end_of_record
SF:/mnt/c/D/git/SLIDE/src/types/XYdata.hpp
FN:26,_ZN5slide14check_is_fixedINS_9FixedDataIdLb1EEEEEbRT_
FNDA:9,_ZN5slide14check_is_fixedINS_9FixedDataIdLb1EEEEEbRT_
FN:53,_ZN5slide6XYdataINS_9FixedDataIdLb1EEES2_EC2Ev
FNDA:9,_ZN5slide6XYdataINS_9FixedDataIdLb1EEES2_EC2Ev
FN:64,_ZN5slide6XYdataINS_9FixedDataIdLb1EEES2_E6interpEdbb
FNDA:210,_ZN5slide6XYdataINS_9FixedDataIdLb1EEES2_E6interpEdbb
FN:71,_ZN5slide6XYdataINS_9FixedDataIdLb1EEES2_E14check_is_fixedEv
FNDA:9,_ZN5slide6XYdataINS_9FixedDataIdLb1EEES2_E14check_is_fixedEv
DA:26,9
DA:28,9
DA:29,9
DA:31,9
DA:33,18
DA:34,9
DA:35,9
DA:36,0
DA:37,0
DA:41,9
DA:53,9
DA:64,210
DA:66,210
DA:71,9
DA:73,9
DA:74,9
end_of_record
SF:/mnt/c/D/git/SLIDE/src/StorageUnit.hpp
FN:33,_ZN5slide11StorageUnit15calculateNcellsEv
FNDA:0,_ZN5slide11StorageUnit15calculateNcellsEv
FN:38,_ZN5slide11StorageUnitC2ESt17basic_string_viewIcSt11char_traitsIcEE
FNDA:9,_ZN5slide11StorageUnitC2ESt17basic_string_viewIcSt11char_traitsIcEE
FN:42,_ZN5slide11StorageUnitD0Ev
FNDA:0,_ZN5slide11StorageUnitD0Ev
FN:42,_ZN5slide11StorageUnitD2Ev
FNDA:11,_ZN5slide11StorageUnitD2Ev
FN:43,_ZN5slide11StorageUnit5getIDB5cxx11Ev
FNDA:0,_ZN5slide11StorageUnit5getIDB5cxx11Ev
FN:47,_ZN5slide11StorageUnit9getFullIDB5cxx11Ev
FNDA:0,_ZN5slide11StorageUnit9getFullIDB5cxx11Ev
FN:51,_ZN5slide11StorageUnit9getParentEv
FNDA:1,_ZN5slide11StorageUnit9getParentEv
FN:57,_ZN5slide11StorageUnit10isChargingEv
FNDA:0,_ZN5slide11StorageUnit10isChargingEv
FN:58,_ZN5slide11StorageUnit13isDischargingEv
FNDA:0,_ZN5slide11StorageUnit13isDischargingEv
FN:61,_ZN5slide11StorageUnit10viewStatesEv
FNDA:0,_ZN5slide11StorageUnit10viewStatesEv
FN:63,_ZN5slide11StorageUnit9setParentEPS0_
FNDA:0,_ZN5slide11StorageUnit9setParentEPS0_
FN:65,_ZN5slide11StorageUnit10setVoltageEdbb
FNDA:0,_ZN5slide11StorageUnit10setVoltageEdbb
FN:73,_ZN5slide11StorageUnit12backupStatesEv
FNDA:0,_ZN5slide11StorageUnit12backupStatesEv
FN:74,_ZN5slide11StorageUnit13restoreStatesEv
FNDA:0,_ZN5slide11StorageUnit13restoreStatesEv
DA:33,0
DA:38,9
DA:42,0
DA:42,11
DA:43,0
DA:47,0
DA:51,1
DA:57,0
DA:58,0
DA:61,0
DA:63,0
DA:65,0
DA:67,0
DA:73,0
DA:74,0
end_of_record
SF:/mnt/c/D/git/SLIDE/src/types/data_storage/CellDataStorage.hpp
FN:59,_ZN5slide15CellDataStorageILNS_8settings20cellDataStorageLevelE3EE10initialiseINS_8Cell_ECMILm0EEEEEvRT_
FNDA:9,_ZN5slide15CellDataStorageILNS_8settings20cellDataStorageLevelE3EE10initialiseINS_8Cell_ECMILm0EEEEEvRT_
FN:62,_ZN5slide15CellDataStorageILNS_8settings20cellDataStorageLevelE3EE9storeDataINS_4CellEEEvRT_
FNDA:100,_ZN5slide15CellDataStorageILNS_8settings20cellDataStorageLevelE3EE9storeDataINS_4CellEEEvRT_
DA:59,9
DA:62,100
DA:64,100
DA:66,100
DA:67,100
DA:68,100
DA:69,100
DA:70,100
DA:71,100
DA:72,100
DA:73,100
end_of_record
SF:/mnt/c/D/git/SLIDE/src/types/Histogram.hpp
FN:37,_ZN5slide9HistogramILNS_13HistogramTypeE1EdEC2Ev
FNDA:1,_ZN5slide9HistogramILNS_13HistogramTypeE1EdEC2Ev
DA:37,1
end_of_record
SF:/mnt/c/D/git/SLIDE/src/utility/interpolation.hpp
FN:26,_ZN5slide15linInt_noexceptINS_9FixedDataIdLb1EEES2_EEDabRT_RT0_idb
FNDA:210,_ZN5slide15linInt_noexceptINS_9FixedDataIdLb1EEES2_EEDabRT_RT0_idb
FN:91,_ZN5slide6linIntINS_9FixedDataIdLb1EEES2_EEdbbRT_RT0_idb
FNDA:210,_ZN5slide6linIntINS_9FixedDataIdLb1EEES2_EEdbbRT_RT0_idb
DA:26,210
DA:46,210
DA:47,210
DA:50,210
DA:51,210
DA:52,0
DA:53,0
DA:54,210
DA:55,0
DA:56,0
DA:60,210
DA:61,0
DA:62,210
DA:63,0
DA:66,210
DA:69,210
DA:70,210
DA:71,210
DA:76,0
DA:77,0
DA:80,210
DA:81,210
DA:82,210
DA:83,210
DA:84,210
DA:87,210
DA:91,210
DA:116,210
DA:118,210
DA:119,0
DA:120,0
DA:121,0
DA:124,210
end_of_record
SF:/mnt/c/D/git/SLIDE/src/cells/Cell.hpp
FN:38,_ZN5slide4CellC2Ev
FNDA:9,_ZN5slide4CellC2Ev
FN:41,_ZN5slide4CellD2Ev
FNDA:11,_ZN5slide4CellD2Ev
FN:41,_ZN5slide4CellD0Ev
FNDA:0,_ZN5slide4CellD0Ev
FN:43,_ZNK5slide4Cell3CapEv
FNDA:105,_ZNK5slide4Cell3CapEv
FN:44,_ZN5slide4Cell11setCapacityEd
FNDA:1,_ZN5slide4Cell11setCapacityEd
FN:46,_ZNK5slide4Cell4VminEv
FNDA:8,_ZNK5slide4Cell4VminEv
FN:47,_ZNK5slide4Cell4VMINEv
FNDA:9,_ZNK5slide4Cell4VMINEv
FN:48,_ZNK5slide4Cell4VMAXEv
FNDA:9,_ZNK5slide4Cell4VMAXEv
FN:49,_ZNK5slide4Cell4VmaxEv
FNDA:8,_ZNK5slide4Cell4VmaxEv
FN:50,_ZN5slide4Cell4TmaxEv
FNDA:1,_ZN5slide4Cell4TmaxEv
FN:51,_ZN5slide4Cell4TminEv
FNDA:1,_ZN5slide4Cell4TminEv
FN:53,_ZN5slide4Cell8getVhighEv
FNDA:0,_ZN5slide4Cell8getVhighEv
FN:54,_ZN5slide4Cell7getVlowEv
FNDA:0,_ZN5slide4Cell7getVlowEv
FN:56,_ZN5slide4Cell11getThotSpotEv
FNDA:0,_ZN5slide4Cell11getThotSpotEv
FN:58,_ZN5slide4Cell12checkCurrentEbb
FNDA:6,_ZN5slide4Cell12checkCurrentEbb
FN:66,_ZN5slide4Cell12checkVoltageERdb
FNDA:6,_ZN5slide4Cell12checkVoltageERdb
FN:82,_ZN5slide4Cell9getNcellsEv
FNDA:0,_ZN5slide4Cell9getNcellsEv
FN:91,_ZN5slide4Cell12thermalModelEiPdS1_S1_d
FNDA:0,_ZN5slide4Cell12thermalModelEiPdS1_S1_d
FN:103,_ZN5slide4Cell9storeDataEv
FNDA:100,_ZN5slide4Cell9storeDataEv
FN:104,_ZN5slide4Cell9writeDataERKNSt7__cxx1112basic_stringIcSt11char_traitsIcESaIcEEE
FNDA:0,_ZN5slide4Cell9writeDataERKNSt7__cxx1112basic_stringIcSt11char_traitsIcESaIcEEE
FN:106,_ZN5slide4Cell14getThroughputsEv
FNDA:0,_ZN5slide4Cell14getThroughputsEv
FN:108,_ZNK5slide4Cell13getVariationsEv
FNDA:0,_ZNK5slide4Cell13getVariationsEv
DA:38,9
DA:41,0
DA:41,11
DA:43,105
DA:44,1
DA:46,8
DA:47,9
DA:48,9
DA:49,8
DA:50,1
DA:51,1
DA:53,0
DA:54,0
DA:56,0
DA:58,6
DA:61,6
DA:63,6
DA:66,6
DA:79,6
DA:82,0
DA:91,0
DA:99,0
DA:103,100
DA:104,0
DA:106,0
DA:108,0
end_of_record
TN:
SF:/mnt/c/D/git/SLIDE/src/utility/free_functions.hpp
FN:25,_ZN5slide4free20setVoltage_iterativeINS_11StorageUnitEEENS_6StatusEPT_d
FNDA:0,_ZN5slide4free20setVoltage_iterativeINS_11StorageUnitEEENS_6StatusEPT_d
FN:49,_ZN5slide4free10write_dataERSt14basic_ofstreamIcSt11char_traitsIcEERSt6vectorIdSaIdEEm
FNDA:0,_ZN5slide4free10write_dataERSt14basic_ofstreamIcSt11char_traitsIcEERSt6vectorIdSaIdEEm
FN:104,_ZN5slide4free9check_SOCILb1EEEDaddd
FNDA:5,_ZN5slide4free9check_SOCILb1EEEDaddd
FN:118,_ZN5slide4free17check_Cell_statesILb1ENS_8Cell_ECMILm1EEEEEDaRT0_b
FNDA:3,_ZN5slide4free17check_Cell_statesILb1ENS_8Cell_ECMILm1EEEEEDaRT0_b
FN:138,_ZN5slide4free13check_voltageILb1ENS_4CellEEEDaRdRT0_
FNDA:7,_ZN5slide4free13check_voltageILb1ENS_4CellEEEDaRdRT0_
FN:245,_ZN5slide4free8openFileINS_4CellENSt10filesystem7__cxx114pathEEESt14basic_ofstreamIcSt11char_traitsIcEERT_RKT0_RKNSt7__cxx1112basic_stringIcS8_SaIcEEESK_
FNDA:0,_ZN5slide4free8openFileINS_4CellENSt10filesystem7__cxx114pathEEESt14basic_ofstreamIcSt11char_traitsIcEERT_RKT0_RKNSt7__cxx1112basic_stringIcS8_SaIcEEESK_
DA:25,0
DA:29,0
DA:30,0
DA:32,0
DA:33,0
DA:34,0
DA:35,0
DA:37,0
DA:38,0
DA:39,0
DA:41,0
DA:42,0
DA:43,0
DA:46,0
DA:49,0
DA:51,0
DA:52,0
DA:53,0
DA:54,0
DA:56,0
DA:58,0
DA:61,0
DA:62,0
DA:104,5
DA:106,5
DA:109,0
DA:110,0
DA:111,0
DA:112,0
DA:114,5
DA:118,3
DA:120,3
DA:123,0
DA:125,0
DA:129,3
DA:131,3
DA:134,0
DA:138,7
DA:151,7
DA:152,7
DA:155,7
DA:156,0
DA:157,0
DA:158,0
DA:161,7
DA:163,0
DA:164,0
DA:166,0
DA:170,7
DA:171,6
DA:172,1
DA:179,0
DA:180,1
DA:188,0
DA:189,1
DA:192,0
DA:193,0
DA:194,0
DA:195,0
DA:197,0
DA:198,1
DA:201,0
DA:202,0
DA:203,0
DA:204,0
DA:206,0
DA:209,1
DA:245,0
DA:247,0
DA:250,0
DA:252,0
DA:254,0
DA:255,0
DA:258,0
DA:259,0
end_of_record
SF:/mnt/c/D/git/SLIDE/tests/unit/Cell_ECM_test.cpp
FN:18,_ZN5slide5tests4unit20test_constructor_ECMEv
FNDA:1,_ZN5slide5tests4unit20test_constructor_ECMEv
FN:43,_ZN5slide5tests4unit18test_getStates_ECMEv
FNDA:1,_ZN5slide5tests4unit18test_getStates_ECMEv
FN:60,_ZN5slide5tests4unit13test_getV_ECMEv
FNDA:1,_ZN5slide5tests4unit13test_getV_ECMEv
FN:94,_ZN5slide5tests4unit18test_setStates_ECMEv
FNDA:1,_ZN5slide5tests4unit18test_setStates_ECMEv
FN:138,_ZN5slide5tests4unit20test_validStates_ECMEv
FNDA:1,_ZN5slide5tests4unit20test_validStates_ECMEv
FN:168,_ZN5slide5tests4unit20test_timeStep_CC_ECMEv
FNDA:1,_ZN5slide5tests4unit20test_timeStep_CC_ECMEv
FN:191,_ZN5slide5tests4unit17test_all_Cell_ECMEv
FNDA:1,_ZN5slide5tests4unit17test_all_Cell_ECMEv
FN:215,main
FNDA:1,main
DA:18,1
DA:20,1
DA:21,1
DA:22,1
DA:23,1
DA:24,1
DA:25,1
DA:26,1
DA:27,1
DA:29,1
DA:30,1
DA:31,1
DA:32,1
DA:33,1
DA:34,1
DA:35,1
DA:36,1
DA:37,1
DA:38,1
DA:40,1
DA:41,1
DA:43,1
DA:45,1
DA:46,1
DA:48,1
DA:49,1
DA:50,1
DA:51,1
DA:52,1
DA:54,1
DA:55,1
DA:57,1
DA:58,1
DA:60,1
DA:63,1
DA:66,1
DA:67,1
DA:68,1
DA:71,1
DA:72,1
DA:73,1
DA:74,1
DA:75,1
DA:78,1
DA:79,1
DA:80,1
DA:81,1
DA:82,1
DA:83,1
DA:91,1
DA:92,1
DA:94,1
DA:96,1
DA:99,1
DA:100,1
DA:101,1
DA:102,1
DA:103,1
DA:104,1
DA:106,1
DA:107,1
DA:109,1
DA:110,1
DA:111,1
DA:112,1
DA:113,1
DA:114,1
DA:135,1
DA:136,1
DA:138,1
DA:141,1
DA:144,1
DA:146,1
DA:147,1
DA:148,1
DA:149,1
DA:150,1
DA:151,1
DA:152,1
DA:165,1
DA:166,1
DA:168,1
DA:171,1
DA:172,1
DA:173,1
DA:174,1
DA:178,1
DA:179,1
DA:180,1
DA:181,1
DA:183,1
DA:184,1
DA:185,1
DA:186,1
DA:188,1
DA:189,1
DA:191,1
DA:204,1
DA:205,1
DA:206,1
DA:207,1
DA:208,1
DA:209,1
DA:211,1
DA:215,1
end_of_record
SF:/mnt/c/D/git/SLIDE/src/settings/slide_paths.hpp
end_of_record
SF:/mnt/c/D/git/SLIDE/src/types/data_storage/CellDataWriter.hpp
FN:32,_ZN5slide17writeVarAndStatesINS_4CellEEEvRSt14basic_ofstreamIcSt11char_traitsIcEERT_
FNDA:0,_ZN5slide17writeVarAndStatesINS_4CellEEEvRSt14basic_ofstreamIcSt11char_traitsIcEERT_
FN:41,_ZN5slide13writeDataImplILNS_8settings20cellDataStorageLevelE3ENS_4CellENS_8CellDataILS2_3EEEEEvRSt14basic_ofstreamIcSt11char_traitsIcEERT0_RT1_
FNDA:0,_ZN5slide13writeDataImplILNS_8settings20cellDataStorageLevelE3ENS_4CellENS_8CellDataILS2_3EEEEEvRSt14basic_ofstreamIcSt11char_traitsIcEERT0_RT1_
FN:65,_ZN5slide14CellDataWriterILNS_8settings20cellDataStorageLevelE3EE9writeDataINS_4CellENS_8CellDataILS2_3EEEEEvRT_RKNSt7__cxx1112basic_stringIcSt11char_traitsIcESaIcEEERT0_
FNDA:0,_ZN5slide14CellDataWriterILNS_8settings20cellDataStorageLevelE3EE9writeDataINS_4CellENS_8CellDataILS2_3EEEEEvRT_RKNSt7__cxx1112basic_stringIcSt11char_traitsIcESaIcEEERT0_
DA:32,0
DA:34,0
DA:35,0
DA:36,0
DA:37,0
DA:38,0
DA:41,0
DA:44,0
DA:47,0
DA:49,0
DA:65,0
DA:67,0
DA:68,0
DA:69,0
DA:70,0
DA:71,0
end_of_record
SF:/mnt/c/D/git/SLIDE/src/types/FixedData.hpp
FN:31,_ZN5slide13FixedDataIterIdLb1EEC2EPNS_9FixedDataIdLb1EEEi
FNDA:0,_ZN5slide13FixedDataIterIdLb1EEC2EPNS_9FixedDataIdLb1EEEi
FN:33,_ZN5slide13FixedDataIterIdLb1EEppEv
FNDA:0,_ZN5slide13FixedDataIterIdLb1EEppEv
FN:64,_ZNK5slide13FixedDataIterIdLb1EEdeEv
FNDA:0,_ZNK5slide13FixedDataIterIdLb1EEdeEv
FN:67,_ZN5slideneERKNS_13FixedDataIterIdLb1EEES3_
FNDA:0,_ZN5slideneERKNS_13FixedDataIterIdLb1EEES3_
FN:69,_ZN5slideplERKNS_13FixedDataIterIdLb1EEEi
FNDA:0,_ZN5slideplERKNS_13FixedDataIterIdLb1EEEi
FN:74,_ZN5slidemiERKNS_13FixedDataIterIdLb1EEES3_
FNDA:0,_ZN5slidemiERKNS_13FixedDataIterIdLb1EEES3_
FN:97,_ZNK5slide9FixedDataIdLb1EE1FMUlddiE_clEddi
FNDA:242,_ZNK5slide9FixedDataIdLb1EE1FMUlddiE_clEddi
FN:100,_ZN5slide9FixedDataIdLb1EEC2Ev
FNDA:14,_ZN5slide9FixedDataIdLb1EEC2Ev
FN:101,_ZN5slide9FixedDataIdLb1EEC2Eddi
FNDA:14,_ZN5slide9FixedDataIdLb1EEC2Eddi
FN:104,_ZNK5slide9FixedDataIdLb1EEixEi
FNDA:242,_ZNK5slide9FixedDataIdLb1EEixEi
FN:124,_ZN5slide9FixedDataIdLb1EE5beginEv
FNDA:0,_ZN5slide9FixedDataIdLb1EE5beginEv
FN:157,_ZNK5slide9FixedDataIdLb1EE4sizeEv
FNDA:34,_ZNK5slide9FixedDataIdLb1EE4sizeEv
DA:31,0
DA:33,0
DA:35,0
DA:36,0
DA:64,0
DA:67,0
DA:69,0
DA:71,0
DA:74,0
DA:76,0
DA:97,242
DA:100,14
DA:101,14
DA:104,242
DA:115,242
DA:116,242
DA:124,0
DA:157,34
end_of_record
SF:/mnt/c/D/git/SLIDE/src/utility/units.hpp
FN:31,_ZN5slide12K_to_CelsiusIdEEdT_
FNDA:0,_ZN5slide12K_to_CelsiusIdEEdT_
DA:31,0
end_of_record
SF:/mnt/c/D/git/SLIDE/src/types/Status.hpp
FN:49,_ZN5slide10isStatusOKENS_6StatusE
FNDA:7,_ZN5slide10isStatusOKENS_6StatusE
FN:50,_ZN5slide11isStatusBadENS_6StatusE
FNDA:7,_ZN5slide11isStatusBadENS_6StatusE
DA:49,7
DA:50,7
end_of_record
SF:/mnt/c/D/git/SLIDE/src/types/State.hpp
FN:33,_ZNK5slide5StateILm0ELm3EE4timeEv
FNDA:0,_ZNK5slide5StateILm0ELm3EE4timeEv
FN:34,_ZNK5slide5StateILm0ELm3EE2AhEv
FNDA:0,_ZNK5slide5StateILm0ELm3EE2AhEv
FN:35,_ZNK5slide5StateILm0ELm3EE2WhEv
FNDA:0,_ZNK5slide5StateILm0ELm3EE2WhEv
FN:37,_ZN5slide5StateILm4ELm3EE4timeEv
FNDA:4,_ZN5slide5StateILm4ELm3EE4timeEv
FN:38,_ZN5slide5StateILm4ELm3EE2AhEv
FNDA:4,_ZN5slide5StateILm4ELm3EE2AhEv
FN:39,_ZN5slide5StateILm4ELm3EE2WhEv
FNDA:4,_ZN5slide5StateILm4ELm3EE2WhEv
DA:33,0
DA:34,0
DA:35,0
DA:37,4
DA:38,4
DA:39,4
end_of_record
SF:/mnt/c/D/git/SLIDE/src/types/data_storage/CellData.hpp
FN:20,_ZN5slide8CellDataILNS_8settings20cellDataStorageLevelE3EE9writeDataINS_4CellEEEDaRT_RKNSt7__cxx1112basic_stringIcSt11char_traitsIcESaIcEEE
FNDA:0,_ZN5slide8CellDataILNS_8settings20cellDataStorageLevelE3EE9writeDataINS_4CellEEEDaRT_RKNSt7__cxx1112basic_stringIcSt11char_traitsIcESaIcEEE
DA:20,0
DA:22,0
DA:23,0
end_of_record
SF:/mnt/c/D/git/SLIDE/src/types/XYdata.hpp
FN:26,_ZN5slide14check_is_fixedINS_9FixedDataIdLb1EEEEEbRT_
FNDA:7,_ZN5slide14check_is_fixedINS_9FixedDataIdLb1EEEEEbRT_
FN:53,_ZN5slide6XYdataINS_9FixedDataIdLb1EEES2_EC2Ev
FNDA:7,_ZN5slide6XYdataINS_9FixedDataIdLb1EEES2_EC2Ev
FN:64,_ZN5slide6XYdataINS_9FixedDataIdLb1EEES2_E6interpEdbb
FNDA:20,_ZN5slide6XYdataINS_9FixedDataIdLb1EEES2_E6interpEdbb
FN:71,_ZN5slide6XYdataINS_9FixedDataIdLb1EEES2_E14check_is_fixedEv
FNDA:7,_ZN5slide6XYdataINS_9FixedDataIdLb1EEES2_E14check_is_fixedEv
DA:26,7
DA:28,7
DA:29,7
DA:31,7
DA:33,14
DA:34,7
DA:35,7
DA:36,0
DA:37,0
DA:41,7
DA:53,7
DA:64,20
DA:66,20
DA:71,7
DA:73,7
DA:74,7
end_of_record
SF:/mnt/c/D/git/SLIDE/src/cells/Cell_ECM/State_ECM.hpp
FN:27,_ZNK5slide9State_ECMILm1EE1IEv
FNDA:7,_ZNK5slide9State_ECMILm1EE1IEv
FN:30,_ZN5slide9State_ECMILm1EE1IEv
FNDA:32,_ZN5slide9State_ECMILm1EE1IEv
FN:31,_ZN5slide9State_ECMILm1EE2IrEm
FNDA:30,_ZN5slide9State_ECMILm1EE2IrEm
FN:32,_ZN5slide9State_ECMILm1EE3SOCEv
FNDA:33,_ZN5slide9State_ECMILm1EE3SOCEv
FN:33,_ZN5slide9State_ECMILm1EE1TEv
FNDA:10,_ZN5slide9State_ECMILm1EE1TEv
DA:27,7
DA:30,32
DA:31,30
DA:32,33
DA:33,10
end_of_record
SF:/mnt/c/D/git/SLIDE/src/StorageUnit.hpp
FN:33,_ZN5slide11StorageUnit15calculateNcellsEv
FNDA:0,_ZN5slide11StorageUnit15calculateNcellsEv
FN:38,_ZN5slide11StorageUnitC2ESt17basic_string_viewIcSt11char_traitsIcEE
FNDA:7,_ZN5slide11StorageUnitC2ESt17basic_string_viewIcSt11char_traitsIcEE
FN:42,_ZN5slide11StorageUnitD0Ev
FNDA:0,_ZN5slide11StorageUnitD0Ev
FN:42,_ZN5slide11StorageUnitD2Ev
FNDA:7,_ZN5slide11StorageUnitD2Ev
FN:43,_ZN5slide11StorageUnit5getIDB5cxx11Ev
FNDA:0,_ZN5slide11StorageUnit5getIDB5cxx11Ev
FN:47,_ZN5slide11StorageUnit9getFullIDB5cxx11Ev
FNDA:0,_ZN5slide11StorageUnit9getFullIDB5cxx11Ev
FN:57,_ZN5slide11StorageUnit10isChargingEv
FNDA:1,_ZN5slide11StorageUnit10isChargingEv
FN:58,_ZN5slide11StorageUnit13isDischargingEv
FNDA:0,_ZN5slide11StorageUnit13isDischargingEv
FN:61,_ZN5slide11StorageUnit10viewStatesEv
FNDA:0,_ZN5slide11StorageUnit10viewStatesEv
FN:63,_ZN5slide11StorageUnit9setParentEPS0_
FNDA:0,_ZN5slide11StorageUnit9setParentEPS0_
FN:65,_ZN5slide11StorageUnit10setVoltageEdbb
FNDA:0,_ZN5slide11StorageUnit10setVoltageEdbb
FN:73,_ZN5slide11StorageUnit12backupStatesEv
FNDA:0,_ZN5slide11StorageUnit12backupStatesEv
FN:74,_ZN5slide11StorageUnit13restoreStatesEv
FNDA:0,_ZN5slide11StorageUnit13restoreStatesEv
DA:33,0
DA:38,7
DA:42,0
DA:42,7
DA:43,0
DA:47,0
DA:57,1
DA:58,0
DA:61,0
DA:63,0
DA:65,0
DA:67,0
DA:73,0
DA:74,0
end_of_record
SF:/mnt/c/D/git/SLIDE/src/types/data_storage/CellDataStorage.hpp
FN:59,_ZN5slide15CellDataStorageILNS_8settings20cellDataStorageLevelE3EE10initialiseINS_8Cell_ECMILm1EEEEEvRT_
FNDA:7,_ZN5slide15CellDataStorageILNS_8settings20cellDataStorageLevelE3EE10initialiseINS_8Cell_ECMILm1EEEEEvRT_
FN:62,_ZN5slide15CellDataStorageILNS_8settings20cellDataStorageLevelE3EE9storeDataINS_4CellEEEvRT_
FNDA:0,_ZN5slide15CellDataStorageILNS_8settings20cellDataStorageLevelE3EE9storeDataINS_4CellEEEvRT_
DA:59,7
DA:62,0
DA:64,0
DA:66,0
DA:67,0
DA:68,0
DA:69,0
DA:70,0
DA:71,0
DA:72,0
DA:73,0
end_of_record
SF:/mnt/c/D/git/SLIDE/src/utility/interpolation.hpp
FN:26,_ZN5slide15linInt_noexceptINS_9FixedDataIdLb1EEES2_EEDabRT_RT0_idb
FNDA:20,_ZN5slide15linInt_noexceptINS_9FixedDataIdLb1EEES2_EEDabRT_RT0_idb
FN:91,_ZN5slide6linIntINS_9FixedDataIdLb1EEES2_EEdbbRT_RT0_idb
FNDA:20,_ZN5slide6linIntINS_9FixedDataIdLb1EEES2_EEdbbRT_RT0_idb
DA:26,20
DA:46,20
DA:47,20
DA:50,20
DA:51,20
DA:52,0
DA:53,0
DA:54,20
DA:55,0
DA:56,0
DA:60,20
DA:61,0
DA:62,20
DA:63,1
DA:66,19
DA:69,19
DA:70,19
DA:71,19
DA:76,0
DA:77,0
DA:80,19
DA:81,19
DA:82,19
DA:83,19
DA:84,19
DA:87,20
DA:91,20
DA:116,20
DA:118,20
DA:119,0
DA:120,0
DA:121,0
DA:124,20
end_of_record
SF:/mnt/c/D/git/SLIDE/src/cells/Cell.hpp
FN:38,_ZN5slide4CellC2Ev
FNDA:7,_ZN5slide4CellC2Ev
FN:41,_ZN5slide4CellD2Ev
FNDA:7,_ZN5slide4CellD2Ev
FN:41,_ZN5slide4CellD0Ev
FNDA:0,_ZN5slide4CellD0Ev
FN:43,_ZNK5slide4Cell3CapEv
FNDA:6,_ZNK5slide4Cell3CapEv
FN:44,_ZN5slide4Cell11setCapacityEd
FNDA:1,_ZN5slide4Cell11setCapacityEd
FN:46,_ZNK5slide4Cell4VminEv
FNDA:10,_ZNK5slide4Cell4VminEv
FN:47,_ZNK5slide4Cell4VMINEv
FNDA:8,_ZNK5slide4Cell4VMINEv
FN:48,_ZNK5slide4Cell4VMAXEv
FNDA:8,_ZNK5slide4Cell4VMAXEv
FN:49,_ZNK5slide4Cell4VmaxEv
FNDA:10,_ZNK5slide4Cell4VmaxEv
FN:50,_ZN5slide4Cell4TmaxEv
FNDA:4,_ZN5slide4Cell4TmaxEv
FN:51,_ZN5slide4Cell4TminEv
FNDA:4,_ZN5slide4Cell4TminEv
FN:53,_ZN5slide4Cell8getVhighEv
FNDA:0,_ZN5slide4Cell8getVhighEv
FN:54,_ZN5slide4Cell7getVlowEv
FNDA:0,_ZN5slide4Cell7getVlowEv
FN:56,_ZN5slide4Cell11getThotSpotEv
FNDA:0,_ZN5slide4Cell11getThotSpotEv
FN:58,_ZN5slide4Cell12checkCurrentEbb
FNDA:4,_ZN5slide4Cell12checkCurrentEbb
FN:66,_ZN5slide4Cell12checkVoltageERdb
FNDA:7,_ZN5slide4Cell12checkVoltageERdb
FN:82,_ZN5slide4Cell9getNcellsEv
FNDA:0,_ZN5slide4Cell9getNcellsEv
FN:91,_ZN5slide4Cell12thermalModelEiPdS1_S1_d
FNDA:0,_ZN5slide4Cell12thermalModelEiPdS1_S1_d
FN:103,_ZN5slide4Cell9storeDataEv
FNDA:0,_ZN5slide4Cell9storeDataEv
FN:104,_ZN5slide4Cell9writeDataERKNSt7__cxx1112basic_stringIcSt11char_traitsIcESaIcEEE
FNDA:0,_ZN5slide4Cell9writeDataERKNSt7__cxx1112basic_stringIcSt11char_traitsIcESaIcEEE
FN:106,_ZN5slide4Cell14getThroughputsEv
FNDA:0,_ZN5slide4Cell14getThroughputsEv
FN:108,_ZNK5slide4Cell13getVariationsEv
FNDA:0,_ZNK5slide4Cell13getVariationsEv
DA:38,7
DA:41,0
DA:41,7
DA:43,6
DA:44,1
DA:46,10
DA:47,8
DA:48,8
DA:49,10
DA:50,4
DA:51,4
DA:53,0
DA:54,0
DA:56,0
DA:58,4
DA:61,4
DA:63,4
DA:66,7
DA:79,7
DA:82,0
DA:91,0
DA:99,0
DA:103,0
DA:104,0
DA:106,0
DA:108,0
end_of_record
SF:/mnt/c/D/git/SLIDE/src/types/Histogram.hpp
FN:37,_ZN5slide9HistogramILNS_13HistogramTypeE1EdEC2Ev
FNDA:1,_ZN5slide9HistogramILNS_13HistogramTypeE1EdEC2Ev
DA:37,1
end_of_record
SF:/mnt/c/D/git/SLIDE/src/cells/Cell_ECM/Cell_ECM.hpp
FN:60,_ZNK5slide8Cell_ECMILm1EE1IEv
FNDA:7,_ZNK5slide8Cell_ECMILm1EE1IEv
FN:61,_ZN5slide8Cell_ECMILm1EE5getIrEv
FNDA:2,_ZN5slide8Cell_ECMILm1EE5getIrEv
FN:62,_ZN5slide8Cell_ECMILm1EE3SOCEv
FNDA:8,_ZN5slide8Cell_ECMILm1EE3SOCEv
FN:63,_ZN5slide8Cell_ECMILm1EE1TEv
FNDA:10,_ZN5slide8Cell_ECMILm1EE1TEv
FN:66,_ZN5slide8Cell_ECMILm1EE10viewStatesEv
FNDA:0,_ZN5slide8Cell_ECMILm1EE10viewStatesEv
FN:67,_ZN5slide8Cell_ECMILm1EE9getStatesERSt6vectorIdSaIdEE
FNDA:2,_ZN5slide8Cell_ECMILm1EE9getStatesERSt6vectorIdSaIdEE
FN:74,_ZN5slide8Cell_ECMILm1EE7getRtotEv
FNDA:0,_ZN5slide8Cell_ECMILm1EE7getRtotEv
FN:75,_ZN5slide8Cell_ECMILm1EE11getThotSpotEv
FNDA:0,_ZN5slide8Cell_ECMILm1EE11getThotSpotEv
FN:76,_ZN5slide8Cell_ECMILm1EE17getThermalSurfaceEv
FNDA:0,_ZN5slide8Cell_ECMILm1EE17getThermalSurfaceEv
FN:77,_ZN5slide8Cell_ECMILm1EE6getOCVEv
FNDA:20,_ZN5slide8Cell_ECMILm1EE6getOCVEv
FN:83,_ZN5slide8Cell_ECMILm1EE4setTEd
FNDA:0,_ZN5slide8Cell_ECMILm1EE4setTEd
FN:88,_ZN5slide8Cell_ECMILm1EE14getThroughputsEv
FNDA:0,_ZN5slide8Cell_ECMILm1EE14getThroughputsEv
FN:90,_ZN5slide8Cell_ECMILm1EE4copyEv
FNDA:0,_ZN5slide8Cell_ECMILm1EE4copyEv
FN:96,_ZN5slide8Cell_ECMILm1EEC2Ev
FNDA:7,_ZN5slide8Cell_ECMILm1EEC2Ev
FN:120,_ZN5slide8Cell_ECMILm1EEC2Edd
FNDA:1,_ZN5slide8Cell_ECMILm1EEC2Edd
FN:166,_ZN5slide8Cell_ECMILm1EE10setCurrentEdbb
FNDA:4,_ZN5slide8Cell_ECMILm1EE10setCurrentEdbb
FN:180,_ZN5slide8Cell_ECMILm1EE10setVoltageEdbb
FNDA:0,_ZN5slide8Cell_ECMILm1EE10setVoltageEdbb
FN:204,_ZN5slide8Cell_ECMILm1EE6setSOCEdbb
FNDA:0,_ZN5slide8Cell_ECMILm1EE6setSOCEdbb
FN:243,_ZN5slide8Cell_ECMILm1EE1VEv
FNDA:20,_ZN5slide8Cell_ECMILm1EE1VEv
FN:275,_ZN5slide8Cell_ECMILm1EE9setStatesERSt4spanIKdLm18446744073709551615EEbb
FNDA:3,_ZN5slide8Cell_ECMILm1EE9setStatesERSt4spanIKdLm18446744073709551615EEbb
FN:293,_ZN5slide8Cell_ECMILm1EE11validStatesEb
FNDA:4,_ZN5slide8Cell_ECMILm1EE11validStatesEb
FN:320,_ZN5slide8Cell_ECMILm1EE11timeStep_CCEdi
FNDA:4,_ZN5slide8Cell_ECMILm1EE11timeStep_CCEdi
DA:60,7
DA:61,2
DA:62,8
DA:63,10
DA:66,0
DA:67,2
DA:74,0
DA:75,0
DA:76,0
DA:77,20
DA:83,0
DA:88,0
DA:90,0
DA:96,7
DA:98,7
DA:99,7
DA:101,7
DA:102,7
DA:105,7
DA:106,7
DA:107,7
DA:115,7
DA:116,7
DA:117,7
DA:120,1
DA:123,1
DA:125,1
DA:126,1
DA:127,1
DA:166,4
DA:168,4
DA:169,4
DA:171,4
DA:173,4
DA:174,0
DA:176,4
DA:180,0
DA:182,0
DA:185,0
DA:186,0
DA:188,0
DA:189,0
DA:191,0
DA:193,0
DA:195,0
DA:197,0
DA:198,0
DA:200,0
DA:204,0
DA:222,0
DA:223,0
DA:225,0
DA:227,0
DA:229,0
DA:231,0
DA:233,0
DA:234,0
DA:236,0
DA:239,0
DA:243,20
DA:258,20
DA:260,20
DA:261,20
DA:263,40
DA:264,20
DA:266,20
DA:267,0
DA:269,0
DA:270,0
DA:275,3
DA:279,3
DA:281,3
DA:282,3
DA:284,3
DA:286,3
DA:287,1
DA:289,3
DA:293,4
DA:301,4
DA:305,4
DA:307,4
DA:308,0
DA:309,0
DA:310,0
DA:311,0
DA:312,0
DA:316,4
DA:320,4
DA:325,4
DA:328,0
DA:329,0
DA:332,4
DA:334,8
DA:336,4
DA:337,4
DA:339,8
DA:340,4
DA:344,4
DA:345,4
DA:346,4
DA:349,4
end_of_record
SF:/mnt/c/D/git/SLIDE/tests/tests_util.hpp
FN:20,_ZN5slide5tests4TESTIRFbvERA14_KcEEbOT_OT0_
FNDA:1,_ZN5slide5tests4TESTIRFbvERA14_KcEEbOT_OT0_
FN:20,_ZN5slide5tests4TESTIRFbvERA19_KcEEbOT_OT0_
FNDA:2,_ZN5slide5tests4TESTIRFbvERA19_KcEEbOT_OT0_
FN:20,_ZN5slide5tests4TESTIRFbvERA21_KcEEbOT_OT0_
FNDA:3,_ZN5slide5tests4TESTIRFbvERA21_KcEEbOT_OT0_
FN:34,_ZN5slide5tests4NEARIdiEEbT_T0_d
FNDA:9,_ZN5slide5tests4NEARIdiEEbT_T0_d
FN:34,_ZN5slide5tests4NEARIddEEbT_T0_d
FNDA:16,_ZN5slide5tests4NEARIddEEbT_T0_d
FN:46,_ZN5slide5tests2EQEdd
FNDA:0,_ZN5slide5tests2EQEdd
DA:20,1
DA:27,1
DA:28,0
DA:29,0
DA:20,2
DA:27,2
DA:28,0
DA:29,0
DA:20,3
DA:27,3
DA:28,0
DA:29,0
DA:34,9
DA:36,9
DA:37,9
DA:38,9
DA:40,0
DA:41,0
DA:42,0
DA:34,16
DA:36,16
DA:37,16
DA:38,16
DA:40,0
DA:41,0
DA:42,0
DA:46,0
DA:48,0
end_of_record
SF:/mnt/c/D/git/SLIDE/src/utility/util.hpp
FN:108,_ZN5slide12linspace_fixEddi
FNDA:14,_ZN5slide12linspace_fixEddi
DA:108,14
DA:110,14
DA:111,0
DA:112,14
DA:113,0
DA:115,14
end_of_record
TN:
SF:/mnt/c/D/git/SLIDE/tests/tests_util.hpp
FN:20,_ZN5slide5tests4TESTIRFbvERA14_KcEEbOT_OT0_
FNDA:1,_ZN5slide5tests4TESTIRFbvERA14_KcEEbOT_OT0_
FN:20,_ZN5slide5tests4TESTIRFbvERA19_KcEEbOT_OT0_
FNDA:2,_ZN5slide5tests4TESTIRFbvERA19_KcEEbOT_OT0_
FN:20,_ZN5slide5tests4TESTIRFbvERA21_KcEEbOT_OT0_
FNDA:2,_ZN5slide5tests4TESTIRFbvERA21_KcEEbOT_OT0_
FN:34,_ZN5slide5tests4NEARIdiEEbT_T0_d
FNDA:11,_ZN5slide5tests4NEARIdiEEbT_T0_d
FN:34,_ZN5slide5tests4NEARIddEEbT_T0_d
FNDA:50,_ZN5slide5tests4NEARIddEEbT_T0_d
FN:46,_ZN5slide5tests2EQEdd
FNDA:17,_ZN5slide5tests2EQEdd
DA:20,1
DA:27,1
DA:28,0
DA:29,0
DA:20,2
DA:27,2
DA:28,0
DA:29,0
DA:20,2
DA:27,2
DA:28,0
DA:29,0
DA:34,11
DA:36,11
DA:37,11
DA:38,11
DA:40,0
DA:41,0
DA:42,0
DA:34,50
DA:36,50
DA:37,50
DA:38,50
DA:40,0
DA:41,0
DA:42,0
DA:46,17
DA:48,17
end_of_record
SF:/mnt/c/D/git/SLIDE/tests/unit/Cell_SPM_test.cpp
FN:19,_ZN5slide5tests4unit20test_constructor_SPMEv
FNDA:1,_ZN5slide5tests4unit20test_constructor_SPMEv
FN:32,_ZN5slide5tests4unit18test_getStates_SPMEv
FNDA:1,_ZN5slide5tests4unit18test_getStates_SPMEv
FN:91,_ZN5slide5tests4unit13test_getV_SPMEv
FNDA:1,_ZN5slide5tests4unit13test_getV_SPMEv
FN:116,_ZN5slide5tests4unit18test_setStates_SPMEv
FNDA:1,_ZN5slide5tests4unit18test_setStates_SPMEv
FN:223,_ZN5slide5tests4unit20test_timeStep_CC_SPMEv
FNDA:1,_ZN5slide5tests4unit20test_timeStep_CC_SPMEv
FN:249,_ZN5slide5tests4unit17test_all_Cell_SPMEv
FNDA:1,_ZN5slide5tests4unit17test_all_Cell_SPMEv
FN:262,main
FNDA:1,main
DA:19,1
DA:21,1
DA:22,1
DA:23,1
DA:24,1
DA:25,1
DA:26,1
DA:27,1
DA:29,1
DA:30,1
DA:32,1
DA:35,1
DA:36,1
DA:37,1
DA:39,1
DA:43,1
DA:44,1
DA:45,1
DA:46,1
DA:47,1
DA:49,1
DA:50,1
DA:51,1
DA:52,1
DA:53,1
DA:55,1
DA:56,1
DA:57,1
DA:58,1
DA:59,1
DA:60,1
DA:61,1
DA:62,1
DA:63,1
DA:64,1
DA:65,1
DA:67,1
DA:68,1
DA:69,1
DA:71,1
DA:72,1
DA:73,1
DA:74,1
DA:76,1
DA:77,1
DA:78,1
DA:81,1
DA:82,1
DA:84,1
DA:85,1
DA:86,1
DA:88,1
DA:89,1
DA:91,1
DA:93,1
DA:94,1
DA:97,1
DA:98,1
DA:99,1
DA:100,1
DA:103,1
DA:104,1
DA:105,1
DA:108,1
DA:109,1
DA:110,1
DA:111,1
DA:113,1
DA:114,1
DA:116,1
DA:118,1
DA:123,1
DA:124,1
DA:125,1
DA:126,1
DA:127,1
DA:128,1
DA:129,1
DA:130,1
DA:131,1
DA:132,1
DA:133,1
DA:134,1
DA:135,1
DA:136,1
DA:137,1
DA:138,1
DA:139,1
DA:140,1
DA:142,1
DA:144,6
DA:145,5
DA:146,5
DA:149,1
DA:151,6
DA:152,5
DA:153,5
DA:156,1
DA:157,1
DA:158,1
DA:159,1
DA:160,1
DA:161,1
DA:162,1
DA:163,1
DA:164,1
DA:165,1
DA:166,1
DA:167,1
DA:168,1
DA:169,1
DA:170,1
DA:171,1
DA:172,1
DA:173,1
DA:176,1
DA:177,1
DA:179,1
DA:180,1
DA:181,1
DA:182,1
DA:183,1
DA:184,1
DA:185,1
DA:186,1
DA:187,1
DA:188,1
DA:189,1
DA:190,1
DA:191,1
DA:192,1
DA:193,1
DA:194,1
DA:195,1
DA:196,1
DA:220,1
DA:221,1
DA:223,1
DA:226,1
DA:227,1
DA:230,1
DA:231,1
DA:232,1
DA:233,1
DA:234,1
DA:237,1
DA:238,1
DA:239,1
DA:240,1
DA:241,1
DA:242,1
DA:243,1
DA:244,1
DA:246,1
DA:247,1
DA:249,1
DA:252,1
DA:253,1
DA:254,1
DA:255,1
DA:256,1
DA:258,1
DA:262,1
end_of_record
SF:/mnt/c/D/git/SLIDE/src/cells/Cell_SPM/State_SPM.hpp
FN:69,_ZN5slide9State_SPM2zpEm
FNDA:130,_ZN5slide9State_SPM2zpEm
FN:70,_ZN5slide9State_SPM2znEm
FNDA:140,_ZN5slide9State_SPM2znEm
FN:78,_ZN5slide9State_SPM1TEv
FNDA:85,_ZN5slide9State_SPM1TEv
FN:79,_ZN5slide9State_SPM5deltaEv
FNDA:21,_ZN5slide9State_SPM5deltaEv
FN:80,_ZN5slide9State_SPM3LLIEv
FNDA:10,_ZN5slide9State_SPM3LLIEv
FN:81,_ZN5slide9State_SPM6thickpEv
FNDA:48,_ZN5slide9State_SPM6thickpEv
FN:82,_ZN5slide9State_SPM6thicknEv
FNDA:73,_ZN5slide9State_SPM6thicknEv
FN:83,_ZN5slide9State_SPM2epEv
FNDA:17,_ZN5slide9State_SPM2epEv
FN:84,_ZN5slide9State_SPM2enEv
FNDA:17,_ZN5slide9State_SPM2enEv
FN:85,_ZN5slide9State_SPM2apEv
FNDA:50,_ZN5slide9State_SPM2apEv
FN:86,_ZN5slide9State_SPM2anEv
FNDA:75,_ZN5slide9State_SPM2anEv
FN:87,_ZN5slide9State_SPM2CSEv
FNDA:10,_ZN5slide9State_SPM2CSEv
FN:88,_ZN5slide9State_SPM2DpEv
FNDA:25,_ZN5slide9State_SPM2DpEv
FN:89,_ZN5slide9State_SPM2DnEv
FNDA:25,_ZN5slide9State_SPM2DnEv
FN:90,_ZN5slide9State_SPM4rDCpEv
FNDA:21,_ZN5slide9State_SPM4rDCpEv
FN:91,_ZN5slide9State_SPM4rDCnEv
FNDA:21,_ZN5slide9State_SPM4rDCnEv
FN:92,_ZN5slide9State_SPM5rDCccEv
FNDA:21,_ZN5slide9State_SPM5rDCccEv
FN:93,_ZN5slide9State_SPM8delta_plEv
FNDA:11,_ZN5slide9State_SPM8delta_plEv
FN:94,_ZN5slide9State_SPM3SOCEv
FNDA:20,_ZN5slide9State_SPM3SOCEv
FN:95,_ZN5slide9State_SPM1IEv
FNDA:17,_ZN5slide9State_SPM1IEv
FN:106,_ZNK5slide9State_SPM1IEv
FNDA:44,_ZNK5slide9State_SPM1IEv
DA:69,130
DA:70,140
DA:78,85
DA:79,21
DA:80,10
DA:81,48
DA:82,73
DA:83,17
DA:84,17
DA:85,50
DA:86,75
DA:87,10
DA:88,25
DA:89,25
DA:90,21
DA:91,21
DA:92,21
DA:93,11
DA:94,20
DA:95,17
DA:106,44
end_of_record
SF:/mnt/c/D/git/SLIDE/src/StorageUnit.hpp
FN:33,_ZN5slide11StorageUnit15calculateNcellsEv
FNDA:0,_ZN5slide11StorageUnit15calculateNcellsEv
FN:42,_ZN5slide11StorageUnitD0Ev
FNDA:0,_ZN5slide11StorageUnitD0Ev
FN:42,_ZN5slide11StorageUnitD2Ev
FNDA:5,_ZN5slide11StorageUnitD2Ev
FN:43,_ZN5slide11StorageUnit5getIDB5cxx11Ev
FNDA:0,_ZN5slide11StorageUnit5getIDB5cxx11Ev
FN:47,_ZN5slide11StorageUnit9getFullIDB5cxx11Ev
FNDA:0,_ZN5slide11StorageUnit9getFullIDB5cxx11Ev
FN:57,_ZN5slide11StorageUnit10isChargingEv
FNDA:0,_ZN5slide11StorageUnit10isChargingEv
FN:58,_ZN5slide11StorageUnit13isDischargingEv
FNDA:0,_ZN5slide11StorageUnit13isDischargingEv
FN:61,_ZN5slide11StorageUnit10viewStatesEv
FNDA:0,_ZN5slide11StorageUnit10viewStatesEv
FN:63,_ZN5slide11StorageUnit9setParentEPS0_
FNDA:0,_ZN5slide11StorageUnit9setParentEPS0_
FN:65,_ZN5slide11StorageUnit10setVoltageEdbb
FNDA:0,_ZN5slide11StorageUnit10setVoltageEdbb
FN:73,_ZN5slide11StorageUnit12backupStatesEv
FNDA:0,_ZN5slide11StorageUnit12backupStatesEv
FN:74,_ZN5slide11StorageUnit13restoreStatesEv
FNDA:0,_ZN5slide11StorageUnit13restoreStatesEv
DA:33,0
DA:42,0
DA:42,5
DA:43,0
DA:47,0
DA:57,0
DA:58,0
DA:61,0
DA:63,0
DA:65,0
DA:67,0
DA:73,0
DA:74,0
end_of_record
SF:/mnt/c/D/git/SLIDE/src/types/data_storage/CellDataStorage.hpp
FN:62,_ZN5slide15CellDataStorageILNS_8settings20cellDataStorageLevelE3EE9storeDataINS_4CellEEEvRT_
FNDA:0,_ZN5slide15CellDataStorageILNS_8settings20cellDataStorageLevelE3EE9storeDataINS_4CellEEEvRT_
DA:62,0
DA:64,0
DA:66,0
DA:67,0
DA:68,0
DA:69,0
DA:70,0
DA:71,0
DA:72,0
DA:73,0
end_of_record
SF:/mnt/c/D/git/SLIDE/src/cells/Cell_SPM/Cell_SPM.hpp
FN:159,_ZN5slide8Cell_SPM1TEv
FNDA:10,_ZN5slide8Cell_SPM1TEv
FN:165,_ZN5slide8Cell_SPM11getStateObjEv
FNDA:2,_ZN5slide8Cell_SPM11getStateObjEv
FN:208,_ZNK5slide8Cell_SPM1IEv
FNDA:44,_ZNK5slide8Cell_SPM1IEv
FN:275,_ZN5slide8Cell_SPM3SOCEv
FNDA:7,_ZN5slide8Cell_SPM3SOCEv
DA:159,10
DA:165,2
DA:208,44
DA:275,7
end_of_record
SF:/mnt/c/D/git/SLIDE/src/types/Histogram.hpp
FN:37,_ZN5slide9HistogramILNS_13HistogramTypeE1EdEC2Ev
FNDA:6,_ZN5slide9HistogramILNS_13HistogramTypeE1EdEC2Ev
DA:37,6
end_of_record
SF:/mnt/c/D/git/SLIDE/src/cells/Cell.hpp
FN:41,_ZN5slide4CellD2Ev
FNDA:5,_ZN5slide4CellD2Ev
FN:41,_ZN5slide4CellD0Ev
FNDA:0,_ZN5slide4CellD0Ev
FN:43,_ZNK5slide4Cell3CapEv
FNDA:3,_ZNK5slide4Cell3CapEv
FN:46,_ZNK5slide4Cell4VminEv
FNDA:6,_ZNK5slide4Cell4VminEv
FN:47,_ZNK5slide4Cell4VMINEv
FNDA:0,_ZNK5slide4Cell4VMINEv
FN:48,_ZNK5slide4Cell4VMAXEv
FNDA:0,_ZNK5slide4Cell4VMAXEv
FN:49,_ZNK5slide4Cell4VmaxEv
FNDA:6,_ZNK5slide4Cell4VmaxEv
FN:53,_ZN5slide4Cell8getVhighEv
FNDA:0,_ZN5slide4Cell8getVhighEv
FN:54,_ZN5slide4Cell7getVlowEv
FNDA:0,_ZN5slide4Cell7getVlowEv
FN:56,_ZN5slide4Cell11getThotSpotEv
FNDA:0,_ZN5slide4Cell11getThotSpotEv
FN:58,_ZN5slide4Cell12checkCurrentEbb
FNDA:4,_ZN5slide4Cell12checkCurrentEbb
FN:66,_ZN5slide4Cell12checkVoltageERdb
FNDA:5,_ZN5slide4Cell12checkVoltageERdb
FN:82,_ZN5slide4Cell9getNcellsEv
FNDA:0,_ZN5slide4Cell9getNcellsEv
FN:91,_ZN5slide4Cell12thermalModelEiPdS1_S1_d
FNDA:0,_ZN5slide4Cell12thermalModelEiPdS1_S1_d
FN:103,_ZN5slide4Cell9storeDataEv
FNDA:0,_ZN5slide4Cell9storeDataEv
FN:104,_ZN5slide4Cell9writeDataERKNSt7__cxx1112basic_stringIcSt11char_traitsIcESaIcEEE
FNDA:0,_ZN5slide4Cell9writeDataERKNSt7__cxx1112basic_stringIcSt11char_traitsIcESaIcEEE
FN:106,_ZN5slide4Cell14getThroughputsEv
FNDA:0,_ZN5slide4Cell14getThroughputsEv
FN:108,_ZNK5slide4Cell13getVariationsEv
FNDA:0,_ZNK5slide4Cell13getVariationsEv
DA:41,0
DA:41,5
DA:43,3
DA:46,6
DA:47,0
DA:48,0
DA:49,6
DA:53,0
DA:54,0
DA:56,0
DA:58,4
DA:61,4
DA:63,4
DA:66,5
DA:79,5
DA:82,0
DA:91,0
DA:99,0
DA:103,0
DA:104,0
DA:106,0
DA:108,0
end_of_record
SF:/mnt/c/D/git/SLIDE/src/utility/free_functions.hpp
FN:25,_ZN5slide4free20setVoltage_iterativeINS_11StorageUnitEEENS_6StatusEPT_d
FNDA:0,_ZN5slide4free20setVoltage_iterativeINS_11StorageUnitEEENS_6StatusEPT_d
FN:49,_ZN5slide4free10write_dataERSt14basic_ofstreamIcSt11char_traitsIcEERSt6vectorIdSaIdEEm
FNDA:0,_ZN5slide4free10write_dataERSt14basic_ofstreamIcSt11char_traitsIcEERSt6vectorIdSaIdEEm
FN:138,_ZN5slide4free13check_voltageILb1ENS_4CellEEEDaRdRT0_
FNDA:5,_ZN5slide4free13check_voltageILb1ENS_4CellEEEDaRdRT0_
FN:245,_ZN5slide4free8openFileINS_4CellENSt10filesystem7__cxx114pathEEESt14basic_ofstreamIcSt11char_traitsIcEERT_RKT0_RKNSt7__cxx1112basic_stringIcS8_SaIcEEESK_
FNDA:0,_ZN5slide4free8openFileINS_4CellENSt10filesystem7__cxx114pathEEESt14basic_ofstreamIcSt11char_traitsIcEERT_RKT0_RKNSt7__cxx1112basic_stringIcS8_SaIcEEESK_
DA:25,0
DA:29,0
DA:30,0
DA:32,0
DA:33,0
DA:34,0
DA:35,0
DA:37,0
DA:38,0
DA:39,0
DA:41,0
DA:42,0
DA:43,0
DA:46,0
DA:49,0
DA:51,0
DA:52,0
DA:53,0
DA:54,0
DA:56,0
DA:58,0
DA:61,0
DA:62,0
DA:138,5
DA:151,5
DA:152,5
DA:155,5
DA:156,0
DA:157,0
DA:158,0
DA:161,5
DA:163,0
DA:164,0
DA:166,0
DA:170,5
DA:171,5
DA:172,0
DA:179,0
DA:180,0
DA:188,0
DA:189,0
DA:192,0
DA:193,0
DA:194,0
DA:195,0
DA:197,0
DA:198,0
DA:201,0
DA:202,0
DA:203,0
DA:204,0
DA:206,0
DA:209,0
DA:245,0
DA:247,0
DA:250,0
DA:252,0
DA:254,0
DA:255,0
DA:258,0
DA:259,0
end_of_record
SF:/mnt/c/D/git/SLIDE/src/settings/slide_paths.hpp
end_of_record
SF:/mnt/c/D/git/SLIDE/src/types/data_storage/CellDataWriter.hpp
FN:32,_ZN5slide17writeVarAndStatesINS_4CellEEEvRSt14basic_ofstreamIcSt11char_traitsIcEERT_
FNDA:0,_ZN5slide17writeVarAndStatesINS_4CellEEEvRSt14basic_ofstreamIcSt11char_traitsIcEERT_
FN:41,_ZN5slide13writeDataImplILNS_8settings20cellDataStorageLevelE3ENS_4CellENS_8CellDataILS2_3EEEEEvRSt14basic_ofstreamIcSt11char_traitsIcEERT0_RT1_
FNDA:0,_ZN5slide13writeDataImplILNS_8settings20cellDataStorageLevelE3ENS_4CellENS_8CellDataILS2_3EEEEEvRSt14basic_ofstreamIcSt11char_traitsIcEERT0_RT1_
FN:65,_ZN5slide14CellDataWriterILNS_8settings20cellDataStorageLevelE3EE9writeDataINS_4CellENS_8CellDataILS2_3EEEEEvRT_RKNSt7__cxx1112basic_stringIcSt11char_traitsIcESaIcEEERT0_
FNDA:0,_ZN5slide14CellDataWriterILNS_8settings20cellDataStorageLevelE3EE9writeDataINS_4CellENS_8CellDataILS2_3EEEEEvRT_RKNSt7__cxx1112basic_stringIcSt11char_traitsIcESaIcEEERT0_
DA:32,0
DA:34,0
DA:35,0
DA:36,0
DA:37,0
DA:38,0
DA:41,0
DA:44,0
DA:47,0
DA:49,0
DA:65,0
DA:67,0
DA:68,0
DA:69,0
DA:70,0
DA:71,0
end_of_record
SF:/mnt/c/D/git/SLIDE/src/utility/units.hpp
FN:30,_ZN5slide11C_to_KelvinIyEEdT_
FNDA:1,_ZN5slide11C_to_KelvinIyEEdT_
FN:31,_ZN5slide12K_to_CelsiusIdEEdT_
FNDA:0,_ZN5slide12K_to_CelsiusIdEEdT_
FN:36,_ZN5slideli5_degCEy
FNDA:1,_ZN5slideli5_degCEy
DA:30,1
DA:31,0
DA:36,1
end_of_record
SF:/mnt/c/D/git/SLIDE/src/types/State.hpp
FN:33,_ZNK5slide5StateILm0ELm3EE4timeEv
FNDA:0,_ZNK5slide5StateILm0ELm3EE4timeEv
FN:34,_ZNK5slide5StateILm0ELm3EE2AhEv
FNDA:0,_ZNK5slide5StateILm0ELm3EE2AhEv
FN:35,_ZNK5slide5StateILm0ELm3EE2WhEv
FNDA:0,_ZNK5slide5StateILm0ELm3EE2WhEv
DA:33,0
DA:34,0
DA:35,0
end_of_record
SF:/mnt/c/D/git/SLIDE/src/types/data_storage/CellData.hpp
FN:20,_ZN5slide8CellDataILNS_8settings20cellDataStorageLevelE3EE9writeDataINS_4CellEEEDaRT_RKNSt7__cxx1112basic_stringIcSt11char_traitsIcESaIcEEE
FNDA:0,_ZN5slide8CellDataILNS_8settings20cellDataStorageLevelE3EE9writeDataINS_4CellEEEDaRT_RKNSt7__cxx1112basic_stringIcSt11char_traitsIcESaIcEEE
DA:20,0
DA:22,0
DA:23,0
end_of_record
TN:
SF:/mnt/c/D/git/SLIDE/tests/unit/converter_test.cpp
FN:18,_ZN5slide5tests4unit10testLossesEv
FNDA:1,_ZN5slide5tests4unit10testLossesEv
FN:81,_ZN5slide5tests4unit18test_all_ConverterEv
FNDA:1,_ZN5slide5tests4unit18test_all_ConverterEv
FN:89,main
FNDA:1,main
DA:18,1
DA:20,1
DA:23,1
DA:38,1
DA:39,17
DA:40,16
DA:41,16
DA:42,16
DA:45,16
DA:46,16
DA:52,1
DA:53,1
DA:78,1
DA:81,1
DA:83,1
DA:85,1
DA:89,1
end_of_record
SF:/mnt/c/D/git/SLIDE/tests/tests_util.hpp
FN:20,_ZN5slide5tests4TESTIRFbvERA11_KcEEbOT_OT0_
FNDA:1,_ZN5slide5tests4TESTIRFbvERA11_KcEEbOT_OT0_
FN:34,_ZN5slide5tests4NEARIddEEbT_T0_d
FNDA:0,_ZN5slide5tests4NEARIddEEbT_T0_d
FN:46,_ZN5slide5tests2EQEdd
FNDA:0,_ZN5slide5tests2EQEdd
DA:20,1
DA:27,1
DA:28,0
DA:29,0
DA:34,0
DA:36,0
DA:37,0
DA:38,0
DA:40,0
DA:41,0
DA:42,0
DA:46,0
DA:48,0
end_of_record
SF:/mnt/c/D/git/SLIDE/src/settings/slide_paths.hpp
end_of_record
SF:/mnt/c/D/git/SLIDE/src/types/Histogram.hpp
FN:37,_ZN5slide9HistogramILNS_13HistogramTypeE1EdEC2Ev
FNDA:1,_ZN5slide9HistogramILNS_13HistogramTypeE1EdEC2Ev
DA:37,1
end_of_record
